source_filename = "test"
target datalayout = "e-m:e-p:64:64-i64:64-f80:128-n8:16:32:64-S128"

@cf = internal unnamed_addr global i1 false
@pf = internal unnamed_addr global i1 false
@zf = internal unnamed_addr global i1 false
@of = internal unnamed_addr global i1 false
@xmm0 = internal unnamed_addr global i128 0
@xmm1 = internal unnamed_addr global i128 0
@rax = internal unnamed_addr global i64 0
@rcx = internal unnamed_addr global i64 0
@rdx = internal unnamed_addr global i64 0
@rbx = internal unnamed_addr global i64 0
@rsp = internal unnamed_addr global i64 0
@rbp = internal unnamed_addr global i64 0
@rsi = internal unnamed_addr global i64 0
@rdi = internal unnamed_addr global i64 0
@r8 = internal unnamed_addr global i64 0
@r10 = internal unnamed_addr global i64 0
@r11 = internal unnamed_addr global i64 0
@r12 = internal unnamed_addr global i64 0
@r13 = internal unnamed_addr global i64 0
@r14 = internal unnamed_addr global i64 0
@r15 = internal unnamed_addr global i64 0
@global_var_129b.7475 = local_unnamed_addr constant i64 -1404199492896485437
@global_var_5047.7476 = local_unnamed_addr constant i64 2216628163
@global_var_108.7479 = constant i64 5011178175217008693
@global_var_107.7480 = constant [3 x i8] c"D5\00"
@global_var_6c.7484 = constant i64 6381881047449075765
@0 = external global i32
@global_var_44.7477 = constant i32* inttoptr (i64 37188846989213760 to i32*)

define i64 @"_ZN4lang12lang_luaj$6512initupvalue1EJvPN3org4luaj3vm28LuaValueE"() local_unnamed_addr {
dec_label_pc_50:
  %tmp234 = load i64, i64* @rax, align 8
  ret i64 %tmp234
}

define i64 @"_ZN4lang12lang_luaj$324callEJPN3org4luaj3vm28LuaValueES5_"() local_unnamed_addr {
dec_label_pc_60:
  %tmp234 = load i64, i64* @rax, align 8
  ret i64 %tmp234
}

define i64 @"_ZN4lang17lang_luaj$76$15$112initupvalue1EJvPN3org4luaj3vm28LuaValueE"() local_unnamed_addr {
dec_label_pc_80:
  %tmp234 = load i64, i64* @rax, align 8
  ret i64 %tmp234
}

define i64 @"_ZN4lang17lang_luaj$77$20$112initupvalue1EJvPN3org4luaj3vm28LuaValueE"() local_unnamed_addr {
dec_label_pc_90:
  %tmp234 = load i64, i64* @rax, align 8
  ret i64 %tmp234
}

define i64 @"_ZN4lang15lang_luaj$77$144callEJPN3org4luaj3vm28LuaValueES5_"() local_unnamed_addr {
dec_label_pc_a0:
  %tmp234 = load i64, i64* @rax, align 8
  ret i64 %tmp234
}

define i64 @"_ZN4lang12lang_luaj$204callEJPN3org4luaj3vm28LuaValueES5_"() local_unnamed_addr {
dec_label_pc_130:
  %tmp234 = load i64, i64* @rax, align 8
  ret i64 %tmp234
}

define i64 @"_ZN4lang12lang_luaj$4112initupvalue1EJvPN3org4luaj3vm28LuaValueE"() local_unnamed_addr {
dec_label_pc_150:
  %tmp234 = load i64, i64* @rax, align 8
  ret i64 %tmp234
}

define i64 @"_ZN4lang14lang_luaj$77$44callEJPN3org4luaj3vm28LuaValueES5_"() local_unnamed_addr {
dec_label_pc_160:
  %tmp234 = load i64, i64* @rax, align 8
  ret i64 %tmp234
}

define i64 @"_ZN4lang16lang_luaj$76$7$14callEJPN3org4luaj3vm28LuaValueES5_"() local_unnamed_addr {
dec_label_pc_1e0:
  %tmp234 = load i64, i64* @rax, align 8
  ret i64 %tmp234
}

define i64 @"_ZN4lang12lang_luaj$174callEJPN3org4luaj3vm28LuaValueES5_"() local_unnamed_addr {
dec_label_pc_230:
  %tmp234 = load i64, i64* @rax, align 8
  ret i64 %tmp234
}

define i64 @"_ZN4lang12lang_luaj$164callEJPN3org4luaj3vm28LuaValueES5_"() local_unnamed_addr {
dec_label_pc_250:
  %tmp234 = load i64, i64* @rax, align 8
  ret i64 %tmp234
}

define i64 @function_268() local_unnamed_addr {
dec_label_pc_268:
  %v0_26b = load i64, i64* @rax, align 8
  ret i64 %v0_26b
}

define i64 @"_ZN4lang11lang_luaj$74callEJPN3org4luaj3vm28LuaValueES5_"() local_unnamed_addr {
dec_label_pc_270:
  %tmp234 = load i64, i64* @rax, align 8
  ret i64 %tmp234
}

define i64 @_ZN4lang9lang_luaj12initupvalue1EJvPN3org4luaj3vm28LuaValueE() local_unnamed_addr {
dec_label_pc_290:
  %tmp234 = load i64, i64* @rax, align 8
  ret i64 %tmp234
}

define i64 @"_ZN4lang14lang_luaj$76$44callEJPN3org4luaj3vm28LuaValueES5_"() local_unnamed_addr {
dec_label_pc_2a0:
  %tmp234 = load i64, i64* @rax, align 8
  ret i64 %tmp234
}

define i64 @"_ZN4lang12lang_luaj$504callEJPN3org4luaj3vm28LuaValueES5_S5_"() local_unnamed_addr {
dec_label_pc_320:
  %tmp234 = load i64, i64* @rax, align 8
  ret i64 %tmp234
}

define i64 @function_330(i64 %arg1, i64 %arg2, i64 %arg3, i64 %arg4) local_unnamed_addr {
dec_label_pc_330:
  %r12.global-to-local = alloca i64, align 8
  %rbp.global-to-local = alloca i64, align 8
  %v0_330 = load i64, i64* inttoptr (i64 823 to i64*), align 8
  %v2_3d8.pre = load i64, i64* %rbp.global-to-local, align 8
  store i64 %v0_330, i64* @rbx, align 8
  store i64 %v2_3d8.pre, i64* @rax, align 8
  store i64 %v2_3d8.pre, i64* @rdi, align 8
  %v1_3e5242 = inttoptr i64 %v0_330 to i64*
  %v2_3e5243 = load i64, i64* %v1_3e5242, align 8
  store i64 %v2_3e5243, i64* @rdx, align 8
  store i64 %v0_330, i64* @rdi, align 8
  %v4_3f4 = trunc i64 %v2_3d8.pre to i8
  %v5_3f4 = icmp eq i8 %v4_3f4, 0
  %v1_3f6 = icmp eq i1 %v5_3f4, false
  br i1 %v1_3f6, label %dec_label_pc_340.lr.ph, label %dec_label_pc_3fc

dec_label_pc_340.lr.ph:                           ; preds = %dec_label_pc_330
  %v2_3af.pre = load i64, i64* %r12.global-to-local, align 8
  br label %dec_label_pc_340

dec_label_pc_340:                                 ; preds = %dec_label_pc_340, %dec_label_pc_340.lr.ph
  %v1_3e5245 = phi i64* [ %v1_3e5242, %dec_label_pc_340.lr.ph ], [ %v1_3e5, %dec_label_pc_340 ]
  %v0_3c2244 = phi i64 [ %v0_330, %dec_label_pc_340.lr.ph ], [ %v2_3c2, %dec_label_pc_340 ]
  %v2_340 = load i64, i64* %v1_3e5245, align 8
  store i64 %v2_340, i64* @rax, align 8
  store i64 %v2_3d8.pre, i64* @rdx, align 8
  store i64 %v2_3d8.pre, i64* @rdi, align 8
  %v2_379 = load i64, i64* %v1_3e5245, align 8
  store i64 %v2_379, i64* @rax, align 8
  store i64 %v2_3af.pre, i64* @rcx, align 8
  store i64 %v2_379, i64* @rdx, align 8
  store i64 %v2_3af.pre, i64* @rdi, align 8
  %v2_3c2 = load i64, i64* %v1_3e5245, align 8
  store i64 %v2_3c2, i64* @rax, align 8
  store i64 %v0_3c2244, i64* @rdi, align 8
  store i64 %v2_3c2, i64* @rbx, align 8
  store i64 %v2_3d8.pre, i64* @rax, align 8
  store i64 %v2_3d8.pre, i64* @rdi, align 8
  %v1_3e5 = inttoptr i64 %v2_3c2 to i64*
  %v2_3e5 = load i64, i64* %v1_3e5, align 8
  store i64 %v2_3e5, i64* @rdx, align 8
  store i64 %v2_3c2, i64* @rdi, align 8
  br label %dec_label_pc_340

dec_label_pc_3fc:                                 ; preds = %dec_label_pc_330
  %v0_3fc = load i64, i64* inttoptr (i64 1027 to i64*), align 8
  store i64 %v0_3fc, i64* @rax, align 8
  store i64 %arg1, i64* @rbx, align 8
  store i64 %arg2, i64* %rbp.global-to-local, align 8
  store i64 %arg3, i64* %r12.global-to-local, align 8
  ret i64 %v0_3fc
}

define i64 @"_ZN4lang17lang_luaj$77$22$112initupvalue1EJvPN3org4luaj3vm28LuaValueE"(i64 %arg1, i64 %arg2) local_unnamed_addr {
dec_label_pc_410:
  store i64 %arg1, i64* @rdi, align 8
  %v2_410 = add i64 %arg1, 24
  %v3_410 = inttoptr i64 %v2_410 to i64*
  store i64 %arg2, i64* %v3_410, align 8
  %v0_414 = load i64, i64* @rax, align 8
  ret i64 %v0_414
}

define i64 @"_ZN4lang12lang_luaj$274callEJPN3org4luaj3vm28LuaValueES5_"(i64 %arg1, i64 %arg2) local_unnamed_addr {
dec_label_pc_420:
  store i64 %arg1, i64* @rdi, align 8
  store i64 %arg2, i64* @rdi, align 8
  store i64 %arg2, i64* @rax, align 8
  ret i64 %arg2
}

define i64 @"_ZN4lang12lang_luaj$244callEJPN3org4luaj3vm28LuaValueES5_"(i64 %arg1, i64 %arg2) local_unnamed_addr {
dec_label_pc_440:
  store i64 %arg1, i64* @rdi, align 8
  store i64 %arg2, i64* @rdi, align 8
  store i64 %arg2, i64* @rax, align 8
  ret i64 %arg2
}

define i64 @"_ZN4lang14lang_luaj$77$34callEJPN3org4luaj3vm28LuaValueEv"(i64 %arg1) local_unnamed_addr {
dec_label_pc_460:
  store i64 %arg1, i64* @rdi, align 8
  %v0_464 = load i64, i64* @rdi, align 8
  %v1_464 = add i64 %v0_464, 24
  %v2_464 = inttoptr i64 %v1_464 to i64*
  %v3_464 = load i64, i64* %v2_464, align 8
  store i64 %v3_464, i64* @rdi, align 8
  %v1_46f = inttoptr i64 %v3_464 to i64*
  %v2_46f = load i64, i64* %v1_46f, align 8
  store i64 %v2_46f, i64* @rax, align 8
  %v1_47f = inttoptr i64 %v2_46f to i64*
  %v2_47f = load i64, i64* %v1_47f, align 8
  store i64 %v2_47f, i64* @rdx, align 8
  store i64 %v2_46f, i64* @rdi, align 8
  %v0_48b = load i64, i64* inttoptr (i64 1170 to i64*), align 8
  store i64 %v0_48b, i64* @rax, align 8
  ret i64 %v0_48b
}

define i64 @"_ZN4lang15lang_luaj$77$1212initupvalue1EJvPN3org4luaj3vm28LuaValueE"(i64 %arg1, i64 %arg2) local_unnamed_addr {
dec_label_pc_4a0:
  store i64 %arg1, i64* @rdi, align 8
  %v2_4a0 = add i64 %arg1, 24
  %v3_4a0 = inttoptr i64 %v2_4a0 to i64*
  store i64 %arg2, i64* %v3_4a0, align 8
  %v0_4a4 = load i64, i64* @rax, align 8
  ret i64 %v0_4a4
}

define i64 @"_ZN4lang12lang_luaj$294callEJPN3org4luaj3vm28LuaValueES5_"(i64 %arg1, i64 %arg2) local_unnamed_addr {
dec_label_pc_4b0:
  store i64 %arg1, i64* @rdi, align 8
  store i64 %arg2, i64* @rdi, align 8
  store i64 %arg2, i64* @rax, align 8
  ret i64 %arg2
}

define i64 @"_ZN4lang12lang_luaj$124callEJPN3org4luaj3vm28LuaValueES5_"(i64 %arg1, i64 %arg2) local_unnamed_addr {
dec_label_pc_4d0:
  store i64 %arg1, i64* @rdi, align 8
  store i64 %arg2, i64* @rdi, align 8
  store i64 %arg2, i64* @rax, align 8
  ret i64 %arg2
}

define i64 @"_ZN4lang17lang_luaj$77$21$112initupvalue1EJvPN3org4luaj3vm28LuaValueE"(i64 %arg1, i64 %arg2) local_unnamed_addr {
dec_label_pc_4f0:
  store i64 %arg1, i64* @rdi, align 8
  %v2_4f0 = add i64 %arg1, 24
  %v3_4f0 = inttoptr i64 %v2_4f0 to i64*
  store i64 %arg2, i64* %v3_4f0, align 8
  %v0_4f4 = load i64, i64* @rax, align 8
  ret i64 %v0_4f4
}

define i64 @"_ZN4lang11lang_luaj$34callEJPN3org4luaj3vm28LuaValueES5_"(i64 %arg1, i64 %arg2) local_unnamed_addr {
dec_label_pc_500:
  store i64 %arg1, i64* @rdi, align 8
  store i64 %arg2, i64* @rax, align 8
  store i64 %arg2, i64* @rdi, align 8
  %v0_50a = load i64, i64* inttoptr (i64 1297 to i64*), align 8
  store i64 %v0_50a, i64* @rdx, align 8
  store i64 %arg2, i64* @rdi, align 8
  %v4_52a = trunc i64 %arg2 to i8
  %v5_52a = icmp eq i8 %v4_52a, 0
  %v0_52c = load i64, i64* inttoptr (i64 1331 to i64*), align 8
  store i64 %v0_52c, i64* @rax, align 8
  %v2_533 = load i64, i64* inttoptr (i64 1339 to i64*), align 8
  %v3_533 = select i1 %v5_52a, i64 %v2_533, i64 %v0_52c
  store i64 %v3_533, i64* @rax, align 8
  ret i64 %v3_533
}

define i64 @"_ZN4lang11lang_luaj$44callEJPN3org4luaj3vm28LuaValueES5_"() local_unnamed_addr {
dec_label_pc_540:
  %tmp234 = load i64, i64* @rax, align 8
  ret i64 %tmp234
}

define i64 @function_543(i64 %arg1, i64 %arg2, i64 %arg3, i64 %arg4) local_unnamed_addr {
dec_label_pc_543:
  store i64 %arg4, i64* @rcx, align 8
  store i64 %arg3, i64* @rdx, align 8
  store i64 %arg1, i64* @rdi, align 8
  %v0_543 = load i64, i64* @rax, align 8
  %v1_543 = add i64 %v0_543, -119
  %v2_543 = inttoptr i64 %v1_543 to i8*
  %v3_543 = load i8, i8* %v2_543, align 1
  %v4_543 = load i64, i64* @rcx, align 8
  %v5_543 = trunc i64 %v4_543 to i8
  %v6_543 = or i8 %v5_543, %v3_543
  store i8 %v6_543, i8* %v2_543, align 1
  %v0_546 = load i64, i64* @rax, align 8
  %tmp235 = trunc i64 %v0_546 to i8
  %v5_54d = mul i8 %tmp235, 2
  %v21_54d = inttoptr i64 %v0_546 to i8*
  store i8 %v5_54d, i8* %v21_54d, align 1
  %v2_54f = load i8, i8* bitcast (i64* @rax to i8*), align 8
  %v3_54f = load i64, i64* @rax, align 8
  %v4_54f = trunc i64 %v3_54f to i8
  %v5_54f = add i8 %v4_54f, %v2_54f
  %v21_54f = inttoptr i64 %v3_54f to i8*
  store i8 %v5_54f, i8* %v21_54f, align 1
  %v0_55b = load i64, i64* @rax, align 8
  ret i64 %v0_55b
}

define i64 @"_ZN4lang15lang_luaj$77$134callEJPN3org4luaj3vm28LuaValueEv"(i64 %arg1) local_unnamed_addr {
dec_label_pc_560:
  store i64 %arg1, i64* @rdi, align 8
  %v0_564 = load i64, i64* @rdi, align 8
  %v1_564 = add i64 %v0_564, 24
  %v2_564 = inttoptr i64 %v1_564 to i64*
  %v3_564 = load i64, i64* %v2_564, align 8
  store i64 %v3_564, i64* @rdi, align 8
  %v1_568 = inttoptr i64 %v3_564 to i64*
  %v2_568 = load i64, i64* %v1_568, align 8
  store i64 %v2_568, i64* @rax, align 8
  %v1_571 = inttoptr i64 %v2_568 to i64*
  %v2_571 = load i64, i64* %v1_571, align 8
  store i64 %v2_571, i64* @rdx, align 8
  store i64 %v2_568, i64* @rdi, align 8
  ret i64 %v2_568
}

define i64 @"_ZN4lang11lang_luaj$84callEJPN3org4luaj3vm28LuaValueES5_"(i64 %arg1, i64 %arg2) local_unnamed_addr {
dec_label_pc_590:
  store i64 %arg1, i64* @rdi, align 8
  store i64 %arg2, i64* @rdi, align 8
  store i64 %arg2, i64* @rax, align 8
  ret i64 %arg2
}

define i64 @"_ZN4lang12lang_luaj$234callEJPN3org4luaj3vm28LuaValueES5_"(i64 %arg1, i64 %arg2) local_unnamed_addr {
dec_label_pc_5b0:
  store i64 %arg1, i64* @rdi, align 8
  store i64 %arg2, i64* @rdi, align 8
  store i64 %arg2, i64* @rax, align 8
  ret i64 %arg2
}

define i64 @"_ZN4lang17lang_luaj$76$17$112initupvalue1EJvPN3org4luaj3vm28LuaValueE"(i64 %arg1, i64 %arg2) local_unnamed_addr {
dec_label_pc_5d0:
  store i64 %arg1, i64* @rdi, align 8
  %v2_5d0 = add i64 %arg1, 24
  %v3_5d0 = inttoptr i64 %v2_5d0 to i64*
  store i64 %arg2, i64* %v3_5d0, align 8
  %v0_5d4 = load i64, i64* @rax, align 8
  ret i64 %v0_5d4
}

define i64 @"_ZN4lang12lang_luaj$284callEJPN3org4luaj3vm28LuaValueES5_"(i64 %arg1, i64 %arg2) local_unnamed_addr {
dec_label_pc_5e0:
  store i64 %arg1, i64* @rdi, align 8
  store i64 %arg2, i64* @rdi, align 8
  store i64 %arg2, i64* @rax, align 8
  ret i64 %arg2
}

define i64 @"_ZN4lang12lang_luaj$334callEJPN3org4luaj3vm28LuaValueES5_"(i64 %arg1, i64 %arg2) local_unnamed_addr {
dec_label_pc_600:
  store i64 %arg1, i64* @rdi, align 8
  store i64 %arg2, i64* @rdi, align 8
  store i64 %arg2, i64* @rax, align 8
  ret i64 %arg2
}

define i64 @"_ZN4lang14lang_luaj$76$34callEJPN3org4luaj3vm28LuaValueEv"(i64 %arg1) local_unnamed_addr {
dec_label_pc_620:
  store i64 %arg1, i64* @rdi, align 8
  %v0_624 = load i64, i64* @rdi, align 8
  %v1_624 = add i64 %v0_624, 24
  %v2_624 = inttoptr i64 %v1_624 to i64*
  %v3_624 = load i64, i64* %v2_624, align 8
  store i64 %v3_624, i64* @rdi, align 8
  %v1_62f = inttoptr i64 %v3_624 to i64*
  %v2_62f = load i64, i64* %v1_62f, align 8
  store i64 %v2_62f, i64* @rax, align 8
  %v1_63f = inttoptr i64 %v2_62f to i64*
  %v2_63f = load i64, i64* %v1_63f, align 8
  store i64 %v2_63f, i64* @rdx, align 8
  store i64 %v2_62f, i64* @rdi, align 8
  %v0_64b = load i64, i64* inttoptr (i64 1618 to i64*), align 8
  store i64 %v0_64b, i64* @rax, align 8
  ret i64 %v0_64b
}

define i64 @"_ZN4lang11lang_luaj$14callEJPN3org4luaj3vm28LuaValueEv"(i64 %arg1) local_unnamed_addr {
dec_label_pc_660:
  store i64 %arg1, i64* @rdi, align 8
  %v0_664 = load i64, i64* @rdi, align 8
  %v1_664 = add i64 %v0_664, 24
  %v2_664 = inttoptr i64 %v1_664 to i64*
  %v3_664 = load i64, i64* %v2_664, align 8
  store i64 %v3_664, i64* @rdi, align 8
  %v1_66f = inttoptr i64 %v3_664 to i64*
  %v2_66f = load i64, i64* %v1_66f, align 8
  store i64 %v2_66f, i64* @rax, align 8
  %v1_67f = inttoptr i64 %v2_66f to i64*
  %v2_67f = load i64, i64* %v1_67f, align 8
  store i64 %v2_67f, i64* @rdx, align 8
  store i64 %v2_66f, i64* @rdi, align 8
  %v0_68b = load i64, i64* inttoptr (i64 1682 to i64*), align 8
  store i64 %v0_68b, i64* @rax, align 8
  ret i64 %v0_68b
}

define i64 @"_ZN4lang12lang_luaj$364callEJPN3org4luaj3vm28LuaValueES5_"(i64 %arg1, i64 %arg2) local_unnamed_addr {
dec_label_pc_6a0:
  store i64 %arg1, i64* @rdi, align 8
  store i64 %arg2, i64* @rdi, align 8
  store i64 %arg2, i64* @rax, align 8
  ret i64 %arg2
}

define i64 @"_ZN4lang11lang_luaj$212initupvalue1EJvPN3org4luaj3vm28LuaValueE"(i64 %arg1, i64 %arg2) local_unnamed_addr {
dec_label_pc_6c0:
  store i64 %arg1, i64* @rdi, align 8
  %v2_6c0 = add i64 %arg1, 24
  %v3_6c0 = inttoptr i64 %v2_6c0 to i64*
  store i64 %arg2, i64* %v3_6c0, align 8
  %v0_6c4 = load i64, i64* @rax, align 8
  ret i64 %v0_6c4
}

define i64 @"_ZN4lang14lang_luaj$65$14callEJPN3org4luaj3vm28LuaValueES5_S5_"() local_unnamed_addr {
dec_label_pc_6d0:
  %v0_6d0 = load i64, i64* inttoptr (i64 1751 to i64*), align 8
  store i64 %v0_6d0, i64* @rax, align 8
  ret i64 %v0_6d0
}

define i64 @"_ZN4lang25lang_luaj$__TS__ArrayPush4callEJPN3org4luaj3vm28LuaValueES5_S5_"(i64 %arg1, i64 %arg2, i64 %arg3) local_unnamed_addr {
dec_label_pc_6e0:
  %rbp.global-to-local = alloca i64, align 8
  %rsi.global-to-local = alloca i64, align 8
  store i64 %arg3, i64* @rdx, align 8
  store i64 %arg2, i64* %rsi.global-to-local, align 8
  store i64 %arg1, i64* @rdi, align 8
  %v0_6e0 = load i64, i64* %rbp.global-to-local, align 8
  %v0_6e1 = load i64, i64* @rbx, align 8
  %v0_6e2 = load i64, i64* @rdx, align 8
  store i64 %v0_6e2, i64* %rbp.global-to-local, align 8
  %v0_6e5 = load i64, i64* %rsi.global-to-local, align 8
  store i64 %v0_6e5, i64* @rbx, align 8
  store i64 %v0_6e5, i64* @rdi, align 8
  store i64 %v0_6e5, i64* @rax, align 8
  store i64 %v0_6e5, i64* @rdx, align 8
  %v0_6fb = load i64, i64* inttoptr (i64 1794 to i64*), align 8
  store i64 %v0_6fb, i64* @rcx, align 8
  store i64 %v0_6e2, i64* @rdx, align 8
  store i64 %v0_6e5, i64* @rax, align 8
  store i64 %v0_6e5, i64* @rdi, align 8
  store i64 %v0_6e1, i64* @rbx, align 8
  store i64 %v0_6e0, i64* %rbp.global-to-local, align 8
  ret i64 %v0_6e5
}

define i64 @"_ZN4lang12lang_luaj$374callEJPN3org4luaj3vm28LuaValueES5_"(i64 %arg1, i64 %arg2) local_unnamed_addr {
dec_label_pc_730:
  store i64 %arg1, i64* @rdi, align 8
  store i64 %arg2, i64* @rdi, align 8
  store i64 %arg2, i64* @rax, align 8
  ret i64 %arg2
}

define i64 @"_ZN4lang17lang_luaj$76$16$112initupvalue1EJvPN3org4luaj3vm28LuaValueE"(i64 %arg1, i64 %arg2) local_unnamed_addr {
dec_label_pc_750:
  store i64 %arg1, i64* @rdi, align 8
  %v2_750 = add i64 %arg1, 24
  %v3_750 = inttoptr i64 %v2_750 to i64*
  store i64 %arg2, i64* %v3_750, align 8
  %v0_754 = load i64, i64* @rax, align 8
  ret i64 %v0_754
}

define i64 @"_ZN4lang12lang_luaj$134callEJPN3org4luaj3vm28LuaValueES5_"(i64 %arg1, i64 %arg2) local_unnamed_addr {
dec_label_pc_760:
  store i64 %arg1, i64* @rdi, align 8
  store i64 %arg2, i64* @rdi, align 8
  store i64 %arg2, i64* @rax, align 8
  ret i64 %arg2
}

define i64 @_ZN3org4luaj3vm29LuaDouble6islongEJbv(i64 %arg1) local_unnamed_addr {
dec_label_pc_780:
  %cf.global-to-local = alloca i1, align 1
  %pf.global-to-local = alloca i1, align 1
  %zf.global-to-local = alloca i1, align 1
  store i64 %arg1, i64* @rdi, align 8
  %v1_780 = add i64 %arg1, 8
  %v2_780 = inttoptr i64 %v1_780 to i64*
  %v3_780 = load i64, i64* %v2_780, align 8
  %v4_780 = call i128 @__asm_movsd(i64 %v3_780)
  %v0_785 = load i64, i64* inttoptr (i64 1933 to i64*), align 8
  %v1_785 = call i128 @__asm_movsd(i64 %v0_785)
  call void @__asm_ucomisd(i128 %v4_780, i128 %v1_785)
  %v0_791 = load i1, i1* %cf.global-to-local, align 1
  %v1_791 = icmp eq i1 %v0_791, false
  br i1 %v1_791, label %dec_label_pc_7b5, label %dec_label_pc_793

dec_label_pc_793:                                 ; preds = %dec_label_pc_780
  %v2_791 = load i64, i64* @rax, align 8
  ret i64 %v2_791

dec_label_pc_7b5:                                 ; preds = %dec_label_pc_780
  call void @__asm_ucomisd(i128 %v1_785, i128 %v4_780)
  store i64 0, i64* @rdx, align 8
  %v0_7be = load i1, i1* %pf.global-to-local, align 1
  %v1_7be = icmp eq i1 %v0_7be, false
  %v2_7be = zext i1 %v1_7be to i64
  %v3_7be = load i64, i64* @rax, align 8
  %v4_7be = and i64 %v3_7be, 4294967040
  %v0_7c1 = load i1, i1* %zf.global-to-local, align 1
  %v1_7c1 = icmp eq i1 %v0_7c1, false
  %v5_7be.op = or i64 %v4_7be, %v2_7be
  %v7_7c1 = select i1 %v1_7c1, i64 0, i64 %v5_7be.op
  store i64 %v7_7c1, i64* @rax, align 8
  ret i64 %v7_7c1
}

define i64 @_ZN3org4luaj3vm29LuaDouble6tobyteEJcv(i64 %arg1) local_unnamed_addr {
dec_label_pc_7e0:
  store i64 %arg1, i64* @rdi, align 8
  %v1_7e0 = add i64 %arg1, 8
  %v2_7e0 = inttoptr i64 %v1_7e0 to i64*
  %v3_7e0 = load i64, i64* %v2_7e0, align 8
  %v4_7e0 = call i128 @__asm_movsd(i64 %v3_7e0)
  store i64 4294967295, i64* @rax, align 8
  %v1_7ea = load i64, i64* inttoptr (i64 2034 to i64*), align 8
  call void @__asm_ucomisd.7467(i128 %v4_7e0, i64 %v1_7ea)
  %v0_80d = load i64, i64* @rax, align 8
  ret i64 %v0_80d
}

define i64 @_ZN3org4luaj3vm29LuaDouble6tocharEJwv(i64 %arg1) local_unnamed_addr {
dec_label_pc_820:
  store i64 %arg1, i64* @rdi, align 8
  %v1_820 = add i64 %arg1, 8
  %v2_820 = inttoptr i64 %v1_820 to i64*
  %v3_820 = load i64, i64* %v2_820, align 8
  %v4_820 = call i128 @__asm_movsd(i64 %v3_820)
  store i64 4294967295, i64* @rax, align 8
  %v1_82a = load i64, i64* inttoptr (i64 2098 to i64*), align 8
  call void @__asm_ucomisd.7467(i128 %v4_820, i64 %v1_82a)
  %v0_84d = load i64, i64* @rax, align 8
  ret i64 %v0_84d
}

define i128 @_ZN3org4luaj3vm29LuaDouble7tofloatEJfv(i64 %arg1) local_unnamed_addr {
dec_label_pc_860:
  %xmm0.global-to-local = alloca i128, align 8
  store i64 %arg1, i64* @rdi, align 8
  %v0_860 = load i128, i128* %xmm0.global-to-local, align 8
  %v2_860 = call i128 @__asm_pxor(i128 %v0_860, i128 %v0_860)
  store i128 %v2_860, i128* %xmm0.global-to-local, align 8
  %v0_864 = load i64, i64* @rdi, align 8
  %v1_864 = add i64 %v0_864, 8
  %v2_864 = inttoptr i64 %v1_864 to i64*
  %v3_864 = load i64, i64* %v2_864, align 8
  %v4_864 = call i128 @__asm_cvtsd2ss(i64 %v3_864)
  store i128 %v4_864, i128* %xmm0.global-to-local, align 8
  ret i128 %v4_864
}

define i64 @_ZN3org4luaj3vm29LuaDouble7toshortEJsv(i64 %arg1) local_unnamed_addr {
dec_label_pc_870:
  store i64 %arg1, i64* @rdi, align 8
  %v1_870 = add i64 %arg1, 8
  %v2_870 = inttoptr i64 %v1_870 to i64*
  %v3_870 = load i64, i64* %v2_870, align 8
  %v4_870 = call i128 @__asm_movsd(i64 %v3_870)
  store i64 4294967295, i64* @rax, align 8
  %v1_87a = load i64, i64* inttoptr (i64 2178 to i64*), align 8
  call void @__asm_ucomisd.7467(i128 %v4_870, i64 %v1_87a)
  %v0_89d = load i64, i64* @rax, align 8
  ret i64 %v0_89d
}

define i128 @_ZN3org4luaj3vm29LuaDouble9optdoubleEJdd(i64 %arg1) local_unnamed_addr {
dec_label_pc_8b0:
  store i64 %arg1, i64* @rdi, align 8
  %v1_8b0 = add i64 %arg1, 8
  %v2_8b0 = inttoptr i64 %v1_8b0 to i64*
  %v3_8b0 = load i64, i64* %v2_8b0, align 8
  %v4_8b0 = call i128 @__asm_movsd(i64 %v3_8b0)
  ret i128 %v4_8b0
}

define i64 @_ZN3org4luaj3vm29LuaDouble6optintEJii(i64 %arg1) local_unnamed_addr {
dec_label_pc_8c0:
  store i64 %arg1, i64* @rdi, align 8
  %v1_8c0 = add i64 %arg1, 8
  %v2_8c0 = inttoptr i64 %v1_8c0 to i64*
  %v3_8c0 = load i64, i64* %v2_8c0, align 8
  %v4_8c0 = call i128 @__asm_movsd(i64 %v3_8c0)
  store i64 4294967295, i64* @rax, align 8
  %v1_8ca = load i64, i64* inttoptr (i64 2258 to i64*), align 8
  call void @__asm_ucomisd.7467(i128 %v4_8c0, i64 %v1_8ca)
  %v0_8ed = load i64, i64* @rax, align 8
  ret i64 %v0_8ed
}

define i64 @_ZN3org4luaj3vm29LuaDouble7optlongEJxx(i64 %arg1, i64 %arg2, i64 %arg3) local_unnamed_addr {
dec_label_pc_900:
  %cf.global-to-local = alloca i1, align 1
  store i64 %arg3, i64* @rdx, align 8
  store i64 %arg1, i64* @rdi, align 8
  %v1_900 = add i64 %arg1, 8
  %v2_900 = inttoptr i64 %v1_900 to i64*
  %v3_900 = load i64, i64* %v2_900, align 8
  %v4_900 = call i128 @__asm_movsd(i64 %v3_900)
  store i64 9223372036854775807, i64* @rax, align 8
  %v1_90f = load i64, i64* inttoptr (i64 2327 to i64*), align 8
  call void @__asm_ucomisd.7467(i128 %v4_900, i64 %v1_90f)
  %v0_917 = load i1, i1* %cf.global-to-local, align 1
  br i1 %v0_917, label %dec_label_pc_920, label %dec_label_pc_919

dec_label_pc_919:                                 ; preds = %dec_label_pc_900
  %v1_917 = load i64, i64* @rax, align 8
  ret i64 %v1_917

dec_label_pc_920:                                 ; preds = %dec_label_pc_900
  %v0_920 = load i64, i64* inttoptr (i64 2344 to i64*), align 8
  %v1_920 = call i128 @__asm_movsd(i64 %v0_920)
  call void @__asm_ucomisd(i128 %v1_920, i128 %v4_900)
  %v0_92c = load i1, i1* %cf.global-to-local, align 1
  %v1_92c = icmp eq i1 %v0_92c, false
  br i1 %v1_92c, label %dec_label_pc_940, label %dec_label_pc_92e

dec_label_pc_92e:                                 ; preds = %dec_label_pc_920
  %v2_92c = load i64, i64* @rax, align 8
  ret i64 %v2_92c

dec_label_pc_940:                                 ; preds = %dec_label_pc_920
  store i64 -9223372036854775808, i64* @rax, align 8
  ret i64 -9223372036854775808
}

define i64 @_ZN3org4luaj3vm29LuaDouble2eqEJPNS1_8LuaValueES4_(i64 %arg1, i64 %arg2) local_unnamed_addr {
dec_label_pc_950:
  %rsi.global-to-local = alloca i64, align 8
  store i64 %arg2, i64* %rsi.global-to-local, align 8
  store i64 %arg1, i64* @rdi, align 8
  store i64 %arg2, i64* @rax, align 8
  %v0_957 = load i64, i64* @rdi, align 8
  %v1_957 = add i64 %v0_957, 8
  %v2_957 = inttoptr i64 %v1_957 to i64*
  %v3_957 = load i64, i64* %v2_957, align 8
  %v4_957 = call i128 @__asm_movsd(i64 %v3_957)
  %v0_95c = load i64, i64* %rsi.global-to-local, align 8
  store i64 %v0_95c, i64* @rdi, align 8
  %v0_965 = load i64, i64* @rax, align 8
  %v4_965 = trunc i64 %v0_965 to i8
  %v5_965 = icmp eq i8 %v4_965, 0
  %v0_967 = load i64, i64* inttoptr (i64 2414 to i64*), align 8
  store i64 %v0_967, i64* @rax, align 8
  %v2_96e = load i64, i64* inttoptr (i64 2422 to i64*), align 8
  %v3_96e = select i1 %v5_965, i64 %v2_96e, i64 %v0_967
  store i64 %v3_96e, i64* @rax, align 8
  ret i64 %v3_96e
}

define i64 @_ZN3org4luaj3vm29LuaDouble5raweqEJbPNS1_8LuaValueE(i64 %arg1, i64 %arg2) local_unnamed_addr {
dec_label_pc_980:
  %rsi.global-to-local = alloca i64, align 8
  store i64 %arg2, i64* %rsi.global-to-local, align 8
  store i64 %arg1, i64* @rdi, align 8
  store i64 %arg2, i64* @rax, align 8
  %v0_987 = load i64, i64* @rdi, align 8
  %v1_987 = add i64 %v0_987, 8
  %v2_987 = inttoptr i64 %v1_987 to i64*
  %v3_987 = load i64, i64* %v2_987, align 8
  %v4_987 = call i128 @__asm_movsd(i64 %v3_987)
  %v0_98c = load i64, i64* %rsi.global-to-local, align 8
  store i64 %v0_98c, i64* @rdi, align 8
  %v0_999 = load i64, i64* @rax, align 8
  ret i64 %v0_999
}

define i64 @_ZN3org4luaj3vm29LuaDouble5raweqEJbd(i64 %arg1) local_unnamed_addr {
dec_label_pc_9a0:
  %pf.global-to-local = alloca i1, align 1
  %xmm0.global-to-local = alloca i128, align 8
  %zf.global-to-local = alloca i1, align 1
  store i64 %arg1, i64* @rdi, align 8
  %v1_9a0 = add i64 %arg1, 8
  %v2_9a0 = inttoptr i64 %v1_9a0 to i64*
  %v3_9a0 = load i64, i64* %v2_9a0, align 8
  %v4_9a0 = call i128 @__asm_movsd(i64 %v3_9a0)
  store i64 0, i64* @rdx, align 8
  %v1_9aa = load i128, i128* %xmm0.global-to-local, align 8
  call void @__asm_ucomisd(i128 %v4_9a0, i128 %v1_9aa)
  %v0_9ae = load i1, i1* %pf.global-to-local, align 1
  %v1_9ae = icmp eq i1 %v0_9ae, false
  %v2_9ae = zext i1 %v1_9ae to i64
  %v3_9ae = load i64, i64* @rax, align 8
  %v4_9ae = and i64 %v3_9ae, 4294967040
  %v5_9ae = or i64 %v4_9ae, %v2_9ae
  %v0_9b1 = load i1, i1* %zf.global-to-local, align 1
  %v1_9b1 = icmp eq i1 %v0_9b1, false
  %v4_9b1 = load i64, i64* @rdx, align 8
  %v6_9b1.v = select i1 %v1_9b1, i64 %v4_9b1, i64 %v5_9ae
  %v7_9b1 = and i64 %v6_9b1.v, 4294967295
  store i64 %v7_9b1, i64* @rax, align 8
  ret i64 %v7_9b1
}

define i64 @_ZN3org4luaj3vm29LuaDouble5raweqEJbi(i64 %arg1, i64 %arg2) local_unnamed_addr {
dec_label_pc_9c0:
  %pf.global-to-local = alloca i1, align 1
  %xmm0.global-to-local = alloca i128, align 8
  %zf.global-to-local = alloca i1, align 1
  store i64 %arg1, i64* @rdi, align 8
  %v0_9c0 = load i128, i128* %xmm0.global-to-local, align 8
  %v2_9c0 = call i128 @__asm_pxor(i128 %v0_9c0, i128 %v0_9c0)
  store i128 %v2_9c0, i128* %xmm0.global-to-local, align 8
  store i64 0, i64* @rdx, align 8
  %v0_9c9 = load i64, i64* @rdi, align 8
  %v1_9c9 = add i64 %v0_9c9, 8
  %v2_9c9 = inttoptr i64 %v1_9c9 to i64*
  %v3_9c9 = load i64, i64* %v2_9c9, align 8
  %v4_9c9 = call i128 @__asm_movsd(i64 %v3_9c9)
  %v1_9ce = trunc i64 %arg2 to i32
  %v2_9ce = call i128 @__asm_cvtsi2sd.7468(i32 %v1_9ce)
  store i128 %v2_9ce, i128* %xmm0.global-to-local, align 8
  call void @__asm_ucomisd(i128 %v2_9ce, i128 %v4_9c9)
  %v0_9d6 = load i1, i1* %pf.global-to-local, align 1
  %v1_9d6 = icmp eq i1 %v0_9d6, false
  %v2_9d6 = zext i1 %v1_9d6 to i64
  %v3_9d6 = load i64, i64* @rax, align 8
  %v4_9d6 = and i64 %v3_9d6, 4294967040
  %v5_9d6 = or i64 %v4_9d6, %v2_9d6
  %v0_9d9 = load i1, i1* %zf.global-to-local, align 1
  %v1_9d9 = icmp eq i1 %v0_9d9, false
  %v4_9d9 = load i64, i64* @rdx, align 8
  %v6_9d9.v = select i1 %v1_9d9, i64 %v4_9d9, i64 %v5_9d6
  %v7_9d9 = and i64 %v6_9d9.v, 4294967295
  store i64 %v7_9d9, i64* @rax, align 8
  ret i64 %v7_9d9
}

define i64 @_ZN3org4luaj3vm29LuaDouble3addEJPNS1_8LuaValueES4_(i64 %arg1, i64 %arg2) local_unnamed_addr {
dec_label_pc_9e0:
  %rsi.global-to-local = alloca i64, align 8
  store i64 %arg2, i64* %rsi.global-to-local, align 8
  store i64 %arg1, i64* @rdi, align 8
  store i64 %arg2, i64* @rax, align 8
  %v0_9e7 = load i64, i64* @rdi, align 8
  %v1_9e7 = add i64 %v0_9e7, 8
  %v2_9e7 = inttoptr i64 %v1_9e7 to i64*
  %v3_9e7 = load i64, i64* %v2_9e7, align 8
  %v4_9e7 = call i128 @__asm_movsd(i64 %v3_9e7)
  %v0_9ec = load i64, i64* %rsi.global-to-local, align 8
  store i64 %v0_9ec, i64* @rdi, align 8
  %v0_9f9 = load i64, i64* @rax, align 8
  ret i64 %v0_9f9
}

define i64 @_ZN3org4luaj3vm29LuaDouble3subEJPNS1_8LuaValueES4_(i64 %arg1, i64 %arg2) local_unnamed_addr {
dec_label_pc_a00:
  %rsi.global-to-local = alloca i64, align 8
  store i64 %arg2, i64* %rsi.global-to-local, align 8
  store i64 %arg1, i64* @rdi, align 8
  store i64 %arg2, i64* @rax, align 8
  %v0_a07 = load i64, i64* @rdi, align 8
  %v1_a07 = add i64 %v0_a07, 8
  %v2_a07 = inttoptr i64 %v1_a07 to i64*
  %v3_a07 = load i64, i64* %v2_a07, align 8
  %v4_a07 = call i128 @__asm_movsd(i64 %v3_a07)
  %v0_a0c = load i64, i64* %rsi.global-to-local, align 8
  store i64 %v0_a0c, i64* @rdi, align 8
  %v0_a19 = load i64, i64* @rax, align 8
  ret i64 %v0_a19
}

define i64 @_ZN3org4luaj3vm29LuaDouble3mulEJPNS1_8LuaValueES4_(i64 %arg1, i64 %arg2) local_unnamed_addr {
dec_label_pc_a20:
  %rsi.global-to-local = alloca i64, align 8
  store i64 %arg2, i64* %rsi.global-to-local, align 8
  store i64 %arg1, i64* @rdi, align 8
  store i64 %arg2, i64* @rax, align 8
  %v0_a27 = load i64, i64* @rdi, align 8
  %v1_a27 = add i64 %v0_a27, 8
  %v2_a27 = inttoptr i64 %v1_a27 to i64*
  %v3_a27 = load i64, i64* %v2_a27, align 8
  %v4_a27 = call i128 @__asm_movsd(i64 %v3_a27)
  %v0_a2c = load i64, i64* %rsi.global-to-local, align 8
  store i64 %v0_a2c, i64* @rdi, align 8
  %v0_a39 = load i64, i64* @rax, align 8
  ret i64 %v0_a39
}

define i64 @_ZN3org4luaj3vm29LuaDouble3powEJPNS1_8LuaValueES4_(i64 %arg1, i64 %arg2) local_unnamed_addr {
dec_label_pc_a40:
  %rsi.global-to-local = alloca i64, align 8
  store i64 %arg2, i64* %rsi.global-to-local, align 8
  store i64 %arg1, i64* @rdi, align 8
  store i64 %arg2, i64* @rax, align 8
  %v0_a47 = load i64, i64* @rdi, align 8
  %v1_a47 = add i64 %v0_a47, 8
  %v2_a47 = inttoptr i64 %v1_a47 to i64*
  %v3_a47 = load i64, i64* %v2_a47, align 8
  %v4_a47 = call i128 @__asm_movsd(i64 %v3_a47)
  %v0_a4c = load i64, i64* %rsi.global-to-local, align 8
  store i64 %v0_a4c, i64* @rdi, align 8
  %v0_a59 = load i64, i64* @rax, align 8
  ret i64 %v0_a59
}

define i64 @_ZN3org4luaj3vm29LuaDouble3divEJPNS1_8LuaValueES4_(i64 %arg1, i64 %arg2) local_unnamed_addr {
dec_label_pc_a60:
  %rsi.global-to-local = alloca i64, align 8
  store i64 %arg2, i64* %rsi.global-to-local, align 8
  store i64 %arg1, i64* @rdi, align 8
  store i64 %arg2, i64* @rax, align 8
  %v0_a67 = load i64, i64* @rdi, align 8
  %v1_a67 = add i64 %v0_a67, 8
  %v2_a67 = inttoptr i64 %v1_a67 to i64*
  %v3_a67 = load i64, i64* %v2_a67, align 8
  %v4_a67 = call i128 @__asm_movsd(i64 %v3_a67)
  %v0_a6c = load i64, i64* %rsi.global-to-local, align 8
  store i64 %v0_a6c, i64* @rdi, align 8
  %v0_a79 = load i64, i64* @rax, align 8
  ret i64 %v0_a79
}

define i64 @_ZN3org4luaj3vm29LuaDouble3modEJPNS1_8LuaValueES4_(i64 %arg1, i64 %arg2) local_unnamed_addr {
dec_label_pc_a80:
  %rsi.global-to-local = alloca i64, align 8
  store i64 %arg2, i64* %rsi.global-to-local, align 8
  store i64 %arg1, i64* @rdi, align 8
  store i64 %arg2, i64* @rax, align 8
  %v0_a87 = load i64, i64* @rdi, align 8
  %v1_a87 = add i64 %v0_a87, 8
  %v2_a87 = inttoptr i64 %v1_a87 to i64*
  %v3_a87 = load i64, i64* %v2_a87, align 8
  %v4_a87 = call i128 @__asm_movsd(i64 %v3_a87)
  %v0_a8c = load i64, i64* %rsi.global-to-local, align 8
  store i64 %v0_a8c, i64* @rdi, align 8
  %v0_a99 = load i64, i64* @rax, align 8
  ret i64 %v0_a99
}

define i64 @_ZN3org4luaj3vm29LuaDouble2ltEJPNS1_8LuaValueES4_(i64 %arg1, i64 %arg2) local_unnamed_addr {
dec_label_pc_aa0:
  %rsi.global-to-local = alloca i64, align 8
  store i64 %arg2, i64* %rsi.global-to-local, align 8
  store i64 %arg1, i64* @rdi, align 8
  store i64 %arg2, i64* @rax, align 8
  %v0_aa7 = load i64, i64* @rdi, align 8
  %v1_aa7 = add i64 %v0_aa7, 8
  %v2_aa7 = inttoptr i64 %v1_aa7 to i64*
  %v3_aa7 = load i64, i64* %v2_aa7, align 8
  %v4_aa7 = call i128 @__asm_movsd(i64 %v3_aa7)
  %v0_aac = load i64, i64* %rsi.global-to-local, align 8
  store i64 %v0_aac, i64* @rdi, align 8
  %v0_ab5 = load i64, i64* @rax, align 8
  %v4_ab5 = trunc i64 %v0_ab5 to i8
  %v5_ab5 = icmp eq i8 %v4_ab5, 0
  %v0_ab7 = load i64, i64* inttoptr (i64 2750 to i64*), align 8
  store i64 %v0_ab7, i64* @rax, align 8
  %v2_abe = load i64, i64* inttoptr (i64 2758 to i64*), align 8
  %v3_abe = select i1 %v5_ab5, i64 %v2_abe, i64 %v0_ab7
  store i64 %v3_abe, i64* @rax, align 8
  ret i64 %v3_abe
}

define i64 @_ZN3org4luaj3vm29LuaDouble2ltEJPNS1_8LuaValueEd(i64 %arg1) local_unnamed_addr {
dec_label_pc_ad0:
  %cf.global-to-local = alloca i1, align 1
  %xmm0.global-to-local = alloca i128, align 8
  %zf.global-to-local = alloca i1, align 1
  store i64 %arg1, i64* @rdi, align 8
  %v0_ad0 = load i128, i128* %xmm0.global-to-local, align 8
  %v2_ad0 = add i64 %arg1, 8
  %v3_ad0 = inttoptr i64 %v2_ad0 to i64*
  %v4_ad0 = load i64, i64* %v3_ad0, align 8
  call void @__asm_ucomisd.7467(i128 %v0_ad0, i64 %v4_ad0)
  %v0_ad5 = load i64, i64* inttoptr (i64 2780 to i64*), align 8
  store i64 %v0_ad5, i64* @rax, align 8
  %v0_adc = load i1, i1* %cf.global-to-local, align 1
  %v1_adc = load i1, i1* %zf.global-to-local, align 1
  %v2_adc = or i1 %v0_adc, %v1_adc
  %v3_adc = icmp ne i1 %v2_adc, true
  %v5_adc = load i64, i64* inttoptr (i64 2788 to i64*), align 8
  %v6_adc = select i1 %v3_adc, i64 %v5_adc, i64 %v0_ad5
  store i64 %v6_adc, i64* @rax, align 8
  ret i64 %v6_adc
}

define i64 @_ZN3org4luaj3vm29LuaDouble2ltEJPNS1_8LuaValueEi(i64 %arg1, i64 %arg2) local_unnamed_addr {
dec_label_pc_af0:
  %cf.global-to-local = alloca i1, align 1
  %xmm0.global-to-local = alloca i128, align 8
  %zf.global-to-local = alloca i1, align 1
  store i64 %arg1, i64* @rdi, align 8
  %v0_af0 = load i128, i128* %xmm0.global-to-local, align 8
  %v2_af0 = call i128 @__asm_pxor(i128 %v0_af0, i128 %v0_af0)
  store i128 %v2_af0, i128* %xmm0.global-to-local, align 8
  %v0_af4 = load i64, i64* inttoptr (i64 2811 to i64*), align 8
  store i64 %v0_af4, i64* @rax, align 8
  %v1_afb = trunc i64 %arg2 to i32
  %v2_afb = call i128 @__asm_cvtsi2sd.7468(i32 %v1_afb)
  store i128 %v2_afb, i128* %xmm0.global-to-local, align 8
  %v1_aff = load i64, i64* @rdi, align 8
  %v2_aff = add i64 %v1_aff, 8
  %v3_aff = inttoptr i64 %v2_aff to i64*
  %v4_aff = load i64, i64* %v3_aff, align 8
  call void @__asm_ucomisd.7467(i128 %v2_afb, i64 %v4_aff)
  %v0_b04 = load i1, i1* %cf.global-to-local, align 1
  %v1_b04 = load i1, i1* %zf.global-to-local, align 1
  %v2_b04 = or i1 %v0_b04, %v1_b04
  %v3_b04 = icmp ne i1 %v2_b04, true
  %v4_b04 = load i64, i64* @rax, align 8
  %v5_b04 = load i64, i64* inttoptr (i64 2828 to i64*), align 8
  %v6_b04 = select i1 %v3_b04, i64 %v5_b04, i64 %v4_b04
  store i64 %v6_b04, i64* @rax, align 8
  ret i64 %v6_b04
}

define i64 @_ZN3org4luaj3vm29LuaDouble4lt_bEJbPNS1_8LuaValueE() local_unnamed_addr {
dec_label_pc_b10:
  %tmp234 = load i64, i64* @rax, align 8
  ret i64 %tmp234
}

define i64 @function_b14(i64 %arg1, i64 %arg2) local_unnamed_addr {
dec_label_pc_b14:
  %rsi.global-to-local = alloca i64, align 8
  store i64 %arg2, i64* %rsi.global-to-local, align 8
  store i64 %arg1, i64* @rdi, align 8
  store i64 %arg2, i64* @rax, align 8
  %v0_b17 = load i64, i64* @rdi, align 8
  %v1_b17 = add i64 %v0_b17, 8
  %v2_b17 = inttoptr i64 %v1_b17 to i64*
  %v3_b17 = load i64, i64* %v2_b17, align 8
  %v4_b17 = call i128 @__asm_movsd(i64 %v3_b17)
  %v0_b1c = load i64, i64* %rsi.global-to-local, align 8
  store i64 %v0_b1c, i64* @rdi, align 8
  %v0_b29 = load i64, i64* @rax, align 8
  ret i64 %v0_b29
}

define i64 @_ZN3org4luaj3vm29LuaDouble4lt_bEJbi(i64 %arg1, i64 %arg2) local_unnamed_addr {
dec_label_pc_b30:
  %cf.global-to-local = alloca i1, align 1
  %xmm0.global-to-local = alloca i128, align 8
  %zf.global-to-local = alloca i1, align 1
  store i64 %arg1, i64* @rdi, align 8
  %v0_b30 = load i128, i128* %xmm0.global-to-local, align 8
  %v2_b30 = call i128 @__asm_pxor(i128 %v0_b30, i128 %v0_b30)
  store i128 %v2_b30, i128* %xmm0.global-to-local, align 8
  %v1_b34 = trunc i64 %arg2 to i32
  %v2_b34 = call i128 @__asm_cvtsi2sd.7468(i32 %v1_b34)
  store i128 %v2_b34, i128* %xmm0.global-to-local, align 8
  %v1_b38 = load i64, i64* @rdi, align 8
  %v2_b38 = add i64 %v1_b38, 8
  %v3_b38 = inttoptr i64 %v2_b38 to i64*
  %v4_b38 = load i64, i64* %v3_b38, align 8
  call void @__asm_ucomisd.7467(i128 %v2_b34, i64 %v4_b38)
  %v0_b3d = load i1, i1* %cf.global-to-local, align 1
  %v1_b3d = load i1, i1* %zf.global-to-local, align 1
  %v2_b3d = or i1 %v0_b3d, %v1_b3d
  %v3_b3d = icmp ne i1 %v2_b3d, true
  %v4_b3d = zext i1 %v3_b3d to i64
  %v5_b3d = load i64, i64* @rax, align 8
  %v6_b3d = and i64 %v5_b3d, -256
  %v7_b3d = or i64 %v4_b3d, %v6_b3d
  store i64 %v7_b3d, i64* @rax, align 8
  ret i64 %v7_b3d
}

define i64 @_ZN3org4luaj3vm29LuaDouble4lt_bEJbd(i64 %arg1) local_unnamed_addr {
dec_label_pc_b50:
  %cf.global-to-local = alloca i1, align 1
  %xmm0.global-to-local = alloca i128, align 8
  %zf.global-to-local = alloca i1, align 1
  store i64 %arg1, i64* @rdi, align 8
  %v0_b50 = load i128, i128* %xmm0.global-to-local, align 8
  %v2_b50 = add i64 %arg1, 8
  %v3_b50 = inttoptr i64 %v2_b50 to i64*
  %v4_b50 = load i64, i64* %v3_b50, align 8
  call void @__asm_ucomisd.7467(i128 %v0_b50, i64 %v4_b50)
  %v0_b55 = load i1, i1* %cf.global-to-local, align 1
  %v1_b55 = load i1, i1* %zf.global-to-local, align 1
  %v2_b55 = or i1 %v0_b55, %v1_b55
  %v3_b55 = icmp ne i1 %v2_b55, true
  %v4_b55 = zext i1 %v3_b55 to i64
  %v5_b55 = load i64, i64* @rax, align 8
  %v6_b55 = and i64 %v5_b55, -256
  %v7_b55 = or i64 %v4_b55, %v6_b55
  store i64 %v7_b55, i64* @rax, align 8
  ret i64 %v7_b55
}

define i64 @_ZN3org4luaj3vm29LuaDouble4lteqEJPNS1_8LuaValueES4_(i64 %arg1, i64 %arg2) local_unnamed_addr {
dec_label_pc_b60:
  %rsi.global-to-local = alloca i64, align 8
  store i64 %arg2, i64* %rsi.global-to-local, align 8
  store i64 %arg1, i64* @rdi, align 8
  store i64 %arg2, i64* @rax, align 8
  %v0_b67 = load i64, i64* @rdi, align 8
  %v1_b67 = add i64 %v0_b67, 8
  %v2_b67 = inttoptr i64 %v1_b67 to i64*
  %v3_b67 = load i64, i64* %v2_b67, align 8
  %v4_b67 = call i128 @__asm_movsd(i64 %v3_b67)
  %v0_b6c = load i64, i64* %rsi.global-to-local, align 8
  store i64 %v0_b6c, i64* @rdi, align 8
  %v0_b75 = load i64, i64* @rax, align 8
  %v4_b75 = trunc i64 %v0_b75 to i8
  %v5_b75 = icmp eq i8 %v4_b75, 0
  %v0_b77 = load i64, i64* inttoptr (i64 2942 to i64*), align 8
  store i64 %v0_b77, i64* @rax, align 8
  %v2_b7e = load i64, i64* inttoptr (i64 2950 to i64*), align 8
  %v3_b7e = select i1 %v5_b75, i64 %v2_b7e, i64 %v0_b77
  store i64 %v3_b7e, i64* @rax, align 8
  ret i64 %v3_b7e
}

define i64 @_ZN3org4luaj3vm29LuaDouble4lteqEJPNS1_8LuaValueEd(i64 %arg1) local_unnamed_addr {
dec_label_pc_b90:
  %cf.global-to-local = alloca i1, align 1
  %xmm0.global-to-local = alloca i128, align 8
  %zf.global-to-local = alloca i1, align 1
  store i64 %arg1, i64* @rdi, align 8
  %v1_b90 = add i64 %arg1, 8
  %v2_b90 = inttoptr i64 %v1_b90 to i64*
  %v3_b90 = load i64, i64* %v2_b90, align 8
  %v4_b90 = call i128 @__asm_movsd(i64 %v3_b90)
  %v0_b95 = load i128, i128* %xmm0.global-to-local, align 8
  call void @__asm_ucomisd(i128 %v0_b95, i128 %v4_b90)
  %v0_b99 = load i1, i1* %cf.global-to-local, align 1
  %v1_b99 = load i1, i1* %zf.global-to-local, align 1
  %v2_b99 = or i1 %v0_b99, %v1_b99
  br i1 %v2_b99, label %dec_label_pc_ba8, label %dec_label_pc_b9b

dec_label_pc_b9b:                                 ; preds = %dec_label_pc_b90
  %v0_b9b = load i64, i64* inttoptr (i64 2978 to i64*), align 8
  store i64 %v0_b9b, i64* @rax, align 8
  ret i64 %v0_b9b

dec_label_pc_ba8:                                 ; preds = %dec_label_pc_b90
  %v1_ba2 = load i64, i64* @rax, align 8
  ret i64 %v1_ba2
}

define i64 @function_baa() local_unnamed_addr {
dec_label_pc_baa:
  %v0_baf = load i64, i64* @rax, align 8
  ret i64 %v0_baf
}

define i64 @function_bb1() local_unnamed_addr {
dec_label_pc_bb1:
  %v0_bb1 = load i32, i32* inttoptr (i64 2999 to i32*), align 4
  %v1_bb1 = zext i32 %v0_bb1 to i64
  store i64 %v1_bb1, i64* @rax, align 8
  ret i64 %v1_bb1
}

define i64 @_ZN3org4luaj3vm29LuaDouble4lteqEJPNS1_8LuaValueEi(i64 %arg1, i64 %arg2) local_unnamed_addr {
dec_label_pc_bc0:
  %cf.global-to-local = alloca i1, align 1
  %xmm0.global-to-local = alloca i128, align 8
  %zf.global-to-local = alloca i1, align 1
  store i64 %arg1, i64* @rdi, align 8
  %v0_bc0 = load i128, i128* %xmm0.global-to-local, align 8
  %v2_bc0 = call i128 @__asm_pxor(i128 %v0_bc0, i128 %v0_bc0)
  store i128 %v2_bc0, i128* %xmm0.global-to-local, align 8
  %v0_bc4 = load i64, i64* @rdi, align 8
  %v1_bc4 = add i64 %v0_bc4, 8
  %v2_bc4 = inttoptr i64 %v1_bc4 to i64*
  %v3_bc4 = load i64, i64* %v2_bc4, align 8
  %v4_bc4 = call i128 @__asm_movsd(i64 %v3_bc4)
  %v1_bc9 = trunc i64 %arg2 to i32
  %v2_bc9 = call i128 @__asm_cvtsi2sd.7468(i32 %v1_bc9)
  store i128 %v2_bc9, i128* %xmm0.global-to-local, align 8
  call void @__asm_ucomisd(i128 %v2_bc9, i128 %v4_bc4)
  %v0_bd1 = load i1, i1* %cf.global-to-local, align 1
  %v1_bd1 = load i1, i1* %zf.global-to-local, align 1
  %v2_bd1 = or i1 %v0_bd1, %v1_bd1
  br i1 %v2_bd1, label %dec_label_pc_be0, label %dec_label_pc_bd3

dec_label_pc_bd3:                                 ; preds = %dec_label_pc_bc0
  %v0_bd3 = load i64, i64* inttoptr (i64 3034 to i64*), align 8
  store i64 %v0_bd3, i64* @rax, align 8
  ret i64 %v0_bd3

dec_label_pc_be0:                                 ; preds = %dec_label_pc_bc0
  %v1_bda = load i64, i64* @rax, align 8
  ret i64 %v1_bda
}

define i64 @function_be2() local_unnamed_addr {
dec_label_pc_be2:
  %v0_be7 = load i64, i64* @rax, align 8
  ret i64 %v0_be7
}

define i64 @function_be9() local_unnamed_addr {
dec_label_pc_be9:
  %v0_be9 = load i32, i32* inttoptr (i64 3055 to i32*), align 4
  %v1_be9 = zext i32 %v0_be9 to i64
  store i64 %v1_be9, i64* @rax, align 8
  ret i64 %v1_be9
}

define i64 @_ZN3org4luaj3vm29LuaDouble6lteq_bEJbPNS1_8LuaValueE(i64 %arg1, i64 %arg2) local_unnamed_addr {
dec_label_pc_bf0:
  %rsi.global-to-local = alloca i64, align 8
  store i64 %arg2, i64* %rsi.global-to-local, align 8
  store i64 %arg1, i64* @rdi, align 8
  store i64 %arg2, i64* @rax, align 8
  %v0_bf7 = load i64, i64* @rdi, align 8
  %v1_bf7 = add i64 %v0_bf7, 8
  %v2_bf7 = inttoptr i64 %v1_bf7 to i64*
  %v3_bf7 = load i64, i64* %v2_bf7, align 8
  %v4_bf7 = call i128 @__asm_movsd(i64 %v3_bf7)
  %v0_bfc = load i64, i64* %rsi.global-to-local, align 8
  store i64 %v0_bfc, i64* @rdi, align 8
  %v0_c09 = load i64, i64* @rax, align 8
  ret i64 %v0_c09
}

define i64 @_ZN3org4luaj3vm29LuaDouble6lteq_bEJbi(i64 %arg1, i64 %arg2) local_unnamed_addr {
dec_label_pc_c10:
  %cf.global-to-local = alloca i1, align 1
  %pf.global-to-local = alloca i1, align 1
  %xmm0.global-to-local = alloca i128, align 8
  %zf.global-to-local = alloca i1, align 1
  store i64 %arg1, i64* @rdi, align 8
  %v0_c10 = load i128, i128* %xmm0.global-to-local, align 8
  %v2_c10 = call i128 @__asm_pxor(i128 %v0_c10, i128 %v0_c10)
  store i128 %v2_c10, i128* %xmm0.global-to-local, align 8
  store i64 1, i64* @rax, align 8
  %v0_c19 = load i64, i64* @rdi, align 8
  %v1_c19 = add i64 %v0_c19, 8
  %v2_c19 = inttoptr i64 %v1_c19 to i64*
  %v3_c19 = load i64, i64* %v2_c19, align 8
  %v4_c19 = call i128 @__asm_movsd(i64 %v3_c19)
  %v1_c1e = trunc i64 %arg2 to i32
  %v2_c1e = call i128 @__asm_cvtsi2sd.7468(i32 %v1_c1e)
  store i128 %v2_c1e, i128* %xmm0.global-to-local, align 8
  call void @__asm_ucomisd(i128 %v2_c1e, i128 %v4_c19)
  %v0_c26 = load i1, i1* %cf.global-to-local, align 1
  %v1_c26 = load i1, i1* %zf.global-to-local, align 1
  %v2_c26 = or i1 %v0_c26, %v1_c26
  br i1 %v2_c26, label %dec_label_pc_c28, label %dec_label_pc_c10.dec_label_pc_c37_crit_edge

dec_label_pc_c10.dec_label_pc_c37_crit_edge:      ; preds = %dec_label_pc_c10
  %v0_c37.pre = load i64, i64* @rax, align 8
  br label %dec_label_pc_c37

dec_label_pc_c28:                                 ; preds = %dec_label_pc_c10
  call void @__asm_ucomisd(i128 %v4_c19, i128 %v2_c1e)
  store i64 0, i64* @rdx, align 8
  %v0_c31 = load i1, i1* %pf.global-to-local, align 1
  %v1_c31 = icmp eq i1 %v0_c31, false
  %v2_c31 = zext i1 %v1_c31 to i64
  %v3_c31 = load i64, i64* @rax, align 8
  %v4_c31 = and i64 %v3_c31, 4294967040
  %v0_c34 = load i1, i1* %zf.global-to-local, align 1
  %v1_c34 = icmp eq i1 %v0_c34, false
  %v5_c31.op = or i64 %v4_c31, %v2_c31
  %v7_c34 = select i1 %v1_c34, i64 0, i64 %v5_c31.op
  store i64 %v7_c34, i64* @rax, align 8
  br label %dec_label_pc_c37

dec_label_pc_c37:                                 ; preds = %dec_label_pc_c10.dec_label_pc_c37_crit_edge, %dec_label_pc_c28
  %v0_c37 = phi i64 [ %v0_c37.pre, %dec_label_pc_c10.dec_label_pc_c37_crit_edge ], [ %v7_c34, %dec_label_pc_c28 ]
  ret i64 %v0_c37
}

define i64 @_ZN3org4luaj3vm29LuaDouble6lteq_bEJbd(i64 %arg1) local_unnamed_addr {
dec_label_pc_c40:
  %cf.global-to-local = alloca i1, align 1
  %pf.global-to-local = alloca i1, align 1
  %xmm0.global-to-local = alloca i128, align 8
  %zf.global-to-local = alloca i1, align 1
  store i64 %arg1, i64* @rdi, align 8
  %v1_c40 = add i64 %arg1, 8
  %v2_c40 = inttoptr i64 %v1_c40 to i64*
  %v3_c40 = load i64, i64* %v2_c40, align 8
  %v4_c40 = call i128 @__asm_movsd(i64 %v3_c40)
  store i64 1, i64* @rax, align 8
  %v0_c4a = load i128, i128* %xmm0.global-to-local, align 8
  call void @__asm_ucomisd(i128 %v0_c4a, i128 %v4_c40)
  %v0_c4e = load i1, i1* %cf.global-to-local, align 1
  %v1_c4e = load i1, i1* %zf.global-to-local, align 1
  %v2_c4e = or i1 %v0_c4e, %v1_c4e
  br i1 %v2_c4e, label %dec_label_pc_c50, label %dec_label_pc_c40.dec_label_pc_c5f_crit_edge

dec_label_pc_c40.dec_label_pc_c5f_crit_edge:      ; preds = %dec_label_pc_c40
  %v0_c5f.pre = load i64, i64* @rax, align 8
  br label %dec_label_pc_c5f

dec_label_pc_c50:                                 ; preds = %dec_label_pc_c40
  %v1_c50 = load i128, i128* %xmm0.global-to-local, align 8
  call void @__asm_ucomisd(i128 %v4_c40, i128 %v1_c50)
  store i64 0, i64* @rdx, align 8
  %v0_c59 = load i1, i1* %pf.global-to-local, align 1
  %v1_c59 = icmp eq i1 %v0_c59, false
  %v2_c59 = zext i1 %v1_c59 to i64
  %v3_c59 = load i64, i64* @rax, align 8
  %v4_c59 = and i64 %v3_c59, 4294967040
  %v0_c5c = load i1, i1* %zf.global-to-local, align 1
  %v1_c5c = icmp eq i1 %v0_c5c, false
  %v5_c59.op = or i64 %v4_c59, %v2_c59
  %v7_c5c = select i1 %v1_c5c, i64 0, i64 %v5_c59.op
  store i64 %v7_c5c, i64* @rax, align 8
  br label %dec_label_pc_c5f

dec_label_pc_c5f:                                 ; preds = %dec_label_pc_c40.dec_label_pc_c5f_crit_edge, %dec_label_pc_c50
  %v0_c5f = phi i64 [ %v0_c5f.pre, %dec_label_pc_c40.dec_label_pc_c5f_crit_edge ], [ %v7_c5c, %dec_label_pc_c50 ]
  ret i64 %v0_c5f
}

define i64 @_ZN3org4luaj3vm29LuaDouble2gtEJPNS1_8LuaValueES4_(i64 %arg1, i64 %arg2) local_unnamed_addr {
dec_label_pc_c60:
  %rsi.global-to-local = alloca i64, align 8
  store i64 %arg2, i64* %rsi.global-to-local, align 8
  store i64 %arg1, i64* @rdi, align 8
  store i64 %arg2, i64* @rax, align 8
  %v0_c67 = load i64, i64* @rdi, align 8
  %v1_c67 = add i64 %v0_c67, 8
  %v2_c67 = inttoptr i64 %v1_c67 to i64*
  %v3_c67 = load i64, i64* %v2_c67, align 8
  %v4_c67 = call i128 @__asm_movsd(i64 %v3_c67)
  %v0_c6c = load i64, i64* %rsi.global-to-local, align 8
  store i64 %v0_c6c, i64* @rdi, align 8
  %v0_c75 = load i64, i64* @rax, align 8
  %v4_c75 = trunc i64 %v0_c75 to i8
  %v5_c75 = icmp eq i8 %v4_c75, 0
  %v0_c77 = load i64, i64* inttoptr (i64 3198 to i64*), align 8
  store i64 %v0_c77, i64* @rax, align 8
  %v2_c7e = load i64, i64* inttoptr (i64 3206 to i64*), align 8
  %v3_c7e = select i1 %v5_c75, i64 %v2_c7e, i64 %v0_c77
  store i64 %v3_c7e, i64* @rax, align 8
  ret i64 %v3_c7e
}

define i64 @_ZN3org4luaj3vm29LuaDouble2gtEJPNS1_8LuaValueEd(i64 %arg1) local_unnamed_addr {
dec_label_pc_c90:
  %cf.global-to-local = alloca i1, align 1
  %xmm0.global-to-local = alloca i128, align 8
  %zf.global-to-local = alloca i1, align 1
  store i64 %arg1, i64* @rdi, align 8
  %v1_c90 = add i64 %arg1, 8
  %v2_c90 = inttoptr i64 %v1_c90 to i64*
  %v3_c90 = load i64, i64* %v2_c90, align 8
  %v4_c90 = call i128 @__asm_movsd(i64 %v3_c90)
  %v0_c95 = load i64, i64* inttoptr (i64 3228 to i64*), align 8
  store i64 %v0_c95, i64* @rax, align 8
  %v1_c9c = load i128, i128* %xmm0.global-to-local, align 8
  call void @__asm_ucomisd(i128 %v4_c90, i128 %v1_c9c)
  %v0_ca0 = load i1, i1* %cf.global-to-local, align 1
  %v1_ca0 = load i1, i1* %zf.global-to-local, align 1
  %v2_ca0 = or i1 %v0_ca0, %v1_ca0
  %v3_ca0 = icmp ne i1 %v2_ca0, true
  %v4_ca0 = load i64, i64* @rax, align 8
  %v5_ca0 = load i64, i64* inttoptr (i64 3240 to i64*), align 8
  %v6_ca0 = select i1 %v3_ca0, i64 %v5_ca0, i64 %v4_ca0
  store i64 %v6_ca0, i64* @rax, align 8
  ret i64 %v6_ca0
}

define i64 @_ZN3org4luaj3vm29LuaDouble2gtEJPNS1_8LuaValueEi(i64 %arg1, i64 %arg2) local_unnamed_addr {
dec_label_pc_cb0:
  %cf.global-to-local = alloca i1, align 1
  %xmm0.global-to-local = alloca i128, align 8
  %zf.global-to-local = alloca i1, align 1
  store i64 %arg1, i64* @rdi, align 8
  %v0_cb0 = load i128, i128* %xmm0.global-to-local, align 8
  %v2_cb0 = call i128 @__asm_pxor(i128 %v0_cb0, i128 %v0_cb0)
  store i128 %v2_cb0, i128* %xmm0.global-to-local, align 8
  %v0_cb4 = load i64, i64* inttoptr (i64 3259 to i64*), align 8
  store i64 %v0_cb4, i64* @rax, align 8
  %v0_cbb = load i64, i64* @rdi, align 8
  %v1_cbb = add i64 %v0_cbb, 8
  %v2_cbb = inttoptr i64 %v1_cbb to i64*
  %v3_cbb = load i64, i64* %v2_cbb, align 8
  %v4_cbb = call i128 @__asm_movsd(i64 %v3_cbb)
  %v1_cc0 = trunc i64 %arg2 to i32
  %v2_cc0 = call i128 @__asm_cvtsi2sd.7468(i32 %v1_cc0)
  store i128 %v2_cc0, i128* %xmm0.global-to-local, align 8
  call void @__asm_ucomisd(i128 %v4_cbb, i128 %v2_cc0)
  %v0_cc8 = load i1, i1* %cf.global-to-local, align 1
  %v1_cc8 = load i1, i1* %zf.global-to-local, align 1
  %v2_cc8 = or i1 %v0_cc8, %v1_cc8
  %v3_cc8 = icmp ne i1 %v2_cc8, true
  %v4_cc8 = load i64, i64* @rax, align 8
  %v5_cc8 = load i64, i64* inttoptr (i64 3280 to i64*), align 16
  %v6_cc8 = select i1 %v3_cc8, i64 %v5_cc8, i64 %v4_cc8
  store i64 %v6_cc8, i64* @rax, align 8
  ret i64 %v6_cc8
}

define i64 @_ZN3org4luaj3vm29LuaDouble4gt_bEJbPNS1_8LuaValueE(i64 %arg1, i64 %arg2) local_unnamed_addr {
dec_label_pc_ce0:
  %rsi.global-to-local = alloca i64, align 8
  store i64 %arg2, i64* %rsi.global-to-local, align 8
  store i64 %arg1, i64* @rdi, align 8
  store i64 %arg2, i64* @rax, align 8
  %v0_ce7 = load i64, i64* @rdi, align 8
  %v1_ce7 = add i64 %v0_ce7, 8
  %v2_ce7 = inttoptr i64 %v1_ce7 to i64*
  %v3_ce7 = load i64, i64* %v2_ce7, align 8
  %v4_ce7 = call i128 @__asm_movsd(i64 %v3_ce7)
  %v0_cec = load i64, i64* %rsi.global-to-local, align 8
  store i64 %v0_cec, i64* @rdi, align 8
  %v0_cf9 = load i64, i64* @rax, align 8
  ret i64 %v0_cf9
}

define i64 @_ZN3org4luaj3vm29LuaDouble4gt_bEJbi(i64 %arg1, i64 %arg2) local_unnamed_addr {
dec_label_pc_d00:
  %cf.global-to-local = alloca i1, align 1
  %xmm0.global-to-local = alloca i128, align 8
  %zf.global-to-local = alloca i1, align 1
  store i64 %arg1, i64* @rdi, align 8
  %v0_d00 = load i128, i128* %xmm0.global-to-local, align 8
  %v2_d00 = call i128 @__asm_pxor(i128 %v0_d00, i128 %v0_d00)
  store i128 %v2_d00, i128* %xmm0.global-to-local, align 8
  %v0_d04 = load i64, i64* @rdi, align 8
  %v1_d04 = add i64 %v0_d04, 8
  %v2_d04 = inttoptr i64 %v1_d04 to i64*
  %v3_d04 = load i64, i64* %v2_d04, align 8
  %v4_d04 = call i128 @__asm_movsd(i64 %v3_d04)
  %v1_d09 = trunc i64 %arg2 to i32
  %v2_d09 = call i128 @__asm_cvtsi2sd.7468(i32 %v1_d09)
  store i128 %v2_d09, i128* %xmm0.global-to-local, align 8
  call void @__asm_ucomisd(i128 %v4_d04, i128 %v2_d09)
  %v0_d11 = load i1, i1* %cf.global-to-local, align 1
  %v1_d11 = load i1, i1* %zf.global-to-local, align 1
  %v2_d11 = or i1 %v0_d11, %v1_d11
  %v3_d11 = icmp ne i1 %v2_d11, true
  %v4_d11 = zext i1 %v3_d11 to i64
  %v5_d11 = load i64, i64* @rax, align 8
  %v6_d11 = and i64 %v5_d11, -256
  %v7_d11 = or i64 %v4_d11, %v6_d11
  store i64 %v7_d11, i64* @rax, align 8
  ret i64 %v7_d11
}

define i64 @_ZN3org4luaj3vm29LuaDouble4gt_bEJbd(i64 %arg1) local_unnamed_addr {
dec_label_pc_d20:
  %cf.global-to-local = alloca i1, align 1
  %xmm0.global-to-local = alloca i128, align 8
  %zf.global-to-local = alloca i1, align 1
  store i64 %arg1, i64* @rdi, align 8
  %v1_d20 = add i64 %arg1, 8
  %v2_d20 = inttoptr i64 %v1_d20 to i64*
  %v3_d20 = load i64, i64* %v2_d20, align 8
  %v4_d20 = call i128 @__asm_movsd(i64 %v3_d20)
  %v1_d25 = load i128, i128* %xmm0.global-to-local, align 8
  call void @__asm_ucomisd(i128 %v4_d20, i128 %v1_d25)
  %v0_d29 = load i1, i1* %cf.global-to-local, align 1
  %v1_d29 = load i1, i1* %zf.global-to-local, align 1
  %v2_d29 = or i1 %v0_d29, %v1_d29
  %v3_d29 = icmp ne i1 %v2_d29, true
  %v4_d29 = zext i1 %v3_d29 to i64
  %v5_d29 = load i64, i64* @rax, align 8
  %v6_d29 = and i64 %v5_d29, -256
  %v7_d29 = or i64 %v4_d29, %v6_d29
  store i64 %v7_d29, i64* @rax, align 8
  ret i64 %v7_d29
}

define i64 @_ZN3org4luaj3vm29LuaDouble4gteqEJPNS1_8LuaValueES4_(i64 %arg1, i64 %arg2) local_unnamed_addr {
dec_label_pc_d30:
  %rsi.global-to-local = alloca i64, align 8
  store i64 %arg2, i64* %rsi.global-to-local, align 8
  store i64 %arg1, i64* @rdi, align 8
  store i64 %arg2, i64* @rax, align 8
  %v0_d37 = load i64, i64* @rdi, align 8
  %v1_d37 = add i64 %v0_d37, 8
  %v2_d37 = inttoptr i64 %v1_d37 to i64*
  %v3_d37 = load i64, i64* %v2_d37, align 8
  %v4_d37 = call i128 @__asm_movsd(i64 %v3_d37)
  %v0_d3c = load i64, i64* %rsi.global-to-local, align 8
  store i64 %v0_d3c, i64* @rdi, align 8
  %v0_d45 = load i64, i64* @rax, align 8
  %v4_d45 = trunc i64 %v0_d45 to i8
  %v5_d45 = icmp eq i8 %v4_d45, 0
  %v0_d47 = load i64, i64* inttoptr (i64 3406 to i64*), align 8
  store i64 %v0_d47, i64* @rax, align 8
  %v2_d4e = load i64, i64* inttoptr (i64 3414 to i64*), align 8
  %v3_d4e = select i1 %v5_d45, i64 %v2_d4e, i64 %v0_d47
  store i64 %v3_d4e, i64* @rax, align 8
  ret i64 %v3_d4e
}

define i64 @_ZN3org4luaj3vm29LuaDouble4gteqEJPNS1_8LuaValueEd(i64 %arg1) local_unnamed_addr {
dec_label_pc_d60:
  %cf.global-to-local = alloca i1, align 1
  %xmm0.global-to-local = alloca i128, align 8
  store i64 %arg1, i64* @rdi, align 8
  %v1_d60 = add i64 %arg1, 8
  %v2_d60 = inttoptr i64 %v1_d60 to i64*
  %v3_d60 = load i64, i64* %v2_d60, align 8
  %v4_d60 = call i128 @__asm_movsd(i64 %v3_d60)
  %v0_d65 = load i64, i64* inttoptr (i64 3436 to i64*), align 8
  store i64 %v0_d65, i64* @rax, align 8
  %v1_d6c = load i128, i128* %xmm0.global-to-local, align 8
  call void @__asm_ucomisd(i128 %v4_d60, i128 %v1_d6c)
  %v0_d70 = load i1, i1* %cf.global-to-local, align 1
  %v1_d70 = load i64, i64* @rax, align 8
  %v2_d70 = load i64, i64* inttoptr (i64 3448 to i64*), align 8
  %v3_d70 = select i1 %v0_d70, i64 %v2_d70, i64 %v1_d70
  store i64 %v3_d70, i64* @rax, align 8
  ret i64 %v3_d70
}

define i64 @_ZN3org4luaj3vm29LuaDouble4gteqEJPNS1_8LuaValueEi(i64 %arg1, i64 %arg2) local_unnamed_addr {
dec_label_pc_d80:
  %cf.global-to-local = alloca i1, align 1
  %xmm0.global-to-local = alloca i128, align 8
  store i64 %arg1, i64* @rdi, align 8
  %v0_d80 = load i128, i128* %xmm0.global-to-local, align 8
  %v2_d80 = call i128 @__asm_pxor(i128 %v0_d80, i128 %v0_d80)
  store i128 %v2_d80, i128* %xmm0.global-to-local, align 8
  %v0_d84 = load i64, i64* inttoptr (i64 3467 to i64*), align 8
  store i64 %v0_d84, i64* @rax, align 8
  %v0_d8b = load i64, i64* @rdi, align 8
  %v1_d8b = add i64 %v0_d8b, 8
  %v2_d8b = inttoptr i64 %v1_d8b to i64*
  %v3_d8b = load i64, i64* %v2_d8b, align 8
  %v4_d8b = call i128 @__asm_movsd(i64 %v3_d8b)
  %v1_d90 = trunc i64 %arg2 to i32
  %v2_d90 = call i128 @__asm_cvtsi2sd.7468(i32 %v1_d90)
  store i128 %v2_d90, i128* %xmm0.global-to-local, align 8
  call void @__asm_ucomisd(i128 %v4_d8b, i128 %v2_d90)
  %v0_d98 = load i1, i1* %cf.global-to-local, align 1
  %v1_d98 = load i64, i64* @rax, align 8
  %v2_d98 = load i64, i64* inttoptr (i64 3488 to i64*), align 32
  %v3_d98 = select i1 %v0_d98, i64 %v2_d98, i64 %v1_d98
  store i64 %v3_d98, i64* @rax, align 8
  ret i64 %v3_d98
}

define i64 @_ZN3org4luaj3vm29LuaDouble6gteq_bEJbPNS1_8LuaValueE(i64 %arg1, i64 %arg2) local_unnamed_addr {
dec_label_pc_db0:
  %rsi.global-to-local = alloca i64, align 8
  store i64 %arg2, i64* %rsi.global-to-local, align 8
  store i64 %arg1, i64* @rdi, align 8
  store i64 %arg2, i64* @rax, align 8
  %v0_db7 = load i64, i64* @rdi, align 8
  %v1_db7 = add i64 %v0_db7, 8
  %v2_db7 = inttoptr i64 %v1_db7 to i64*
  %v3_db7 = load i64, i64* %v2_db7, align 8
  %v4_db7 = call i128 @__asm_movsd(i64 %v3_db7)
  %v0_dbc = load i64, i64* %rsi.global-to-local, align 8
  store i64 %v0_dbc, i64* @rdi, align 8
  %v0_dc9 = load i64, i64* @rax, align 8
  ret i64 %v0_dc9
}

define i64 @_ZN3org4luaj3vm29LuaDouble6gteq_bEJbi(i64 %arg1, i64 %arg2) local_unnamed_addr {
dec_label_pc_dd0:
  %cf.global-to-local = alloca i1, align 1
  %xmm0.global-to-local = alloca i128, align 8
  store i64 %arg1, i64* @rdi, align 8
  %v0_dd0 = load i128, i128* %xmm0.global-to-local, align 8
  %v2_dd0 = call i128 @__asm_pxor(i128 %v0_dd0, i128 %v0_dd0)
  store i128 %v2_dd0, i128* %xmm0.global-to-local, align 8
  %v0_dd4 = load i64, i64* @rdi, align 8
  %v1_dd4 = add i64 %v0_dd4, 8
  %v2_dd4 = inttoptr i64 %v1_dd4 to i64*
  %v3_dd4 = load i64, i64* %v2_dd4, align 8
  %v4_dd4 = call i128 @__asm_movsd(i64 %v3_dd4)
  %v1_dd9 = trunc i64 %arg2 to i32
  %v2_dd9 = call i128 @__asm_cvtsi2sd.7468(i32 %v1_dd9)
  store i128 %v2_dd9, i128* %xmm0.global-to-local, align 8
  call void @__asm_ucomisd(i128 %v4_dd4, i128 %v2_dd9)
  %v0_de1 = load i1, i1* %cf.global-to-local, align 1
  %v1_de1 = icmp eq i1 %v0_de1, false
  %v2_de1 = zext i1 %v1_de1 to i64
  %v3_de1 = load i64, i64* @rax, align 8
  %v4_de1 = and i64 %v3_de1, -256
  %v5_de1 = or i64 %v4_de1, %v2_de1
  store i64 %v5_de1, i64* @rax, align 8
  ret i64 %v5_de1
}

define i64 @_ZN3org4luaj3vm29LuaDouble6gteq_bEJbd(i64 %arg1) local_unnamed_addr {
dec_label_pc_df0:
  %cf.global-to-local = alloca i1, align 1
  %xmm0.global-to-local = alloca i128, align 8
  store i64 %arg1, i64* @rdi, align 8
  %v1_df0 = add i64 %arg1, 8
  %v2_df0 = inttoptr i64 %v1_df0 to i64*
  %v3_df0 = load i64, i64* %v2_df0, align 8
  %v4_df0 = call i128 @__asm_movsd(i64 %v3_df0)
  %v1_df5 = load i128, i128* %xmm0.global-to-local, align 8
  call void @__asm_ucomisd(i128 %v4_df0, i128 %v1_df5)
  %v0_df9 = load i1, i1* %cf.global-to-local, align 1
  %v1_df9 = icmp eq i1 %v0_df9, false
  %v2_df9 = zext i1 %v1_df9 to i64
  %v3_df9 = load i64, i64* @rax, align 8
  %v4_df9 = and i64 %v3_df9, -256
  %v5_df9 = or i64 %v4_df9, %v2_df9
  store i64 %v5_df9, i64* @rax, align 8
  ret i64 %v5_df9
}

define i64 @_ZN3org4luaj3vm29LuaDouble6strcmpEJiPNS1_9LuaStringE(i64 %arg1) local_unnamed_addr {
dec_label_pc_e00:
  store i64 %arg1, i64* @rdi, align 8
  store i64 0, i64* @rax, align 8
  ret i64 0
}

define i64 @_ZN3org4luaj3vm29LuaDouble10optjstringEJPN4java4lang6StringES6_(i64 %arg1) local_unnamed_addr {
dec_label_pc_e20:
  store i64 %arg1, i64* @rdi, align 8
  %v2_e24 = load i64, i64* @rdi, align 8
  store i64 %v2_e24, i64* @rax, align 8
  ret i64 %v2_e24
}

define i64 @_ZN3org4luaj3vm29LuaDouble9optnumberEJPNS1_9LuaNumberES4_(i64 %arg1) local_unnamed_addr {
dec_label_pc_e40:
  store i64 %arg1, i64* @rdi, align 8
  store i64 %arg1, i64* @rax, align 8
  ret i64 %arg1
}

define i64 @_ZN3org4luaj3vm29LuaDouble8tonumberEJPNS1_8LuaValueEv(i64 %arg1) local_unnamed_addr {
dec_label_pc_e50:
  store i64 %arg1, i64* @rdi, align 8
  store i64 %arg1, i64* @rax, align 8
  ret i64 %arg1
}

define i64 @_ZN3org4luaj3vm29LuaDouble8checkintEJiv(i64 %arg1) local_unnamed_addr {
dec_label_pc_e60:
  store i64 %arg1, i64* @rdi, align 8
  %v1_e60 = add i64 %arg1, 8
  %v2_e60 = inttoptr i64 %v1_e60 to i64*
  %v3_e60 = load i64, i64* %v2_e60, align 8
  %v4_e60 = call i128 @__asm_movsd(i64 %v3_e60)
  store i64 4294967295, i64* @rax, align 8
  %v1_e6a = load i64, i64* inttoptr (i64 3698 to i64*), align 8
  call void @__asm_ucomisd.7467(i128 %v4_e60, i64 %v1_e6a)
  %v0_e8d = load i64, i64* @rax, align 8
  ret i64 %v0_e8d
}

define i64 @_ZN3org4luaj3vm29LuaDouble9checklongEJxv(i64 %arg1, i64 %arg2, i64 %arg3) local_unnamed_addr {
dec_label_pc_ea0:
  %cf.global-to-local = alloca i1, align 1
  store i64 %arg3, i64* @rdx, align 8
  store i64 %arg1, i64* @rdi, align 8
  %v1_ea0 = add i64 %arg1, 8
  %v2_ea0 = inttoptr i64 %v1_ea0 to i64*
  %v3_ea0 = load i64, i64* %v2_ea0, align 8
  %v4_ea0 = call i128 @__asm_movsd(i64 %v3_ea0)
  store i64 9223372036854775807, i64* @rax, align 8
  %v1_eaf = load i64, i64* inttoptr (i64 3767 to i64*), align 8
  call void @__asm_ucomisd.7467(i128 %v4_ea0, i64 %v1_eaf)
  %v0_eb7 = load i1, i1* %cf.global-to-local, align 1
  br i1 %v0_eb7, label %dec_label_pc_ec0, label %dec_label_pc_eb9

dec_label_pc_eb9:                                 ; preds = %dec_label_pc_ea0
  %v1_eb7 = load i64, i64* @rax, align 8
  ret i64 %v1_eb7

dec_label_pc_ec0:                                 ; preds = %dec_label_pc_ea0
  %v0_ec0 = load i64, i64* inttoptr (i64 3784 to i64*), align 8
  %v1_ec0 = call i128 @__asm_movsd(i64 %v0_ec0)
  call void @__asm_ucomisd(i128 %v1_ec0, i128 %v4_ea0)
  %v0_ecc = load i1, i1* %cf.global-to-local, align 1
  %v1_ecc = icmp eq i1 %v0_ecc, false
  br i1 %v1_ecc, label %dec_label_pc_ee0, label %dec_label_pc_ece

dec_label_pc_ece:                                 ; preds = %dec_label_pc_ec0
  %v2_ecc = load i64, i64* @rax, align 8
  ret i64 %v2_ecc

dec_label_pc_ee0:                                 ; preds = %dec_label_pc_ec0
  store i64 -9223372036854775808, i64* @rax, align 8
  ret i64 -9223372036854775808
}

define i64 @_ZN3org4luaj3vm29LuaDouble11checknumberEJPNS1_9LuaNumberEv(i64 %arg1) local_unnamed_addr {
dec_label_pc_ef0:
  store i64 %arg1, i64* @rdi, align 8
  store i64 %arg1, i64* @rax, align 8
  ret i64 %arg1
}

define i128 @_ZN3org4luaj3vm29LuaDouble11checkdoubleEJdv(i64 %arg1) local_unnamed_addr {
dec_label_pc_f00:
  store i64 %arg1, i64* @rdi, align 8
  %v1_f00 = add i64 %arg1, 8
  %v2_f00 = inttoptr i64 %v1_f00 to i64*
  %v3_f00 = load i64, i64* %v2_f00, align 8
  %v4_f00 = call i128 @__asm_movsd(i64 %v3_f00)
  ret i128 %v4_f00
}

define i64 @_ZN3org4luaj3vm29LuaDouble12checkjstringEJPN4java4lang6StringEv(i64 %arg1) local_unnamed_addr {
dec_label_pc_f10:
  store i64 %arg1, i64* @rdi, align 8
  %v2_f14 = load i64, i64* @rdi, align 8
  store i64 %v2_f14, i64* @rax, align 8
  ret i64 %v2_f14
}

define i64 @_ZN3org4luaj3vm23lib5IoLib11_io_tmpfileEJPNS1_7VarargsEv(i64 %arg1) local_unnamed_addr {
dec_label_pc_f30:
  store i64 %arg1, i64* @rdi, align 8
  %v2_f34 = load i64, i64* @rdi, align 8
  store i64 %v2_f34, i64* @rax, align 8
  ret i64 %v2_f34
}

define i64 @_ZN3org4luaj3vm23lib5IoLib9_io_popenEJPNS1_7VarargsEPN4java4lang6StringES9_(i64 %arg1) local_unnamed_addr {
dec_label_pc_f50:
  store i64 %arg1, i64* @rdi, align 8
  %v2_f54 = load i64, i64* @rdi, align 8
  store i64 %v2_f54, i64* @rax, align 8
  ret i64 %v2_f54
}

define i64 @_ZN3org4luaj3vm23lib5IoLib13successresultEJPNS1_7VarargsEv() local_unnamed_addr {
dec_label_pc_f70:
  %v0_f70 = load i64, i64* inttoptr (i64 3959 to i64*), align 8
  store i64 %v0_f70, i64* @rax, align 8
  ret i64 %v0_f70
}

define i64 @"_ZN3org4luaj3vm23lib5IoLib7iowriteEJPNS1_7VarargsEPNS2_10IoLib$FileES5_"(i64 %arg1, i64 %arg2) local_unnamed_addr {
dec_label_pc_f80:
  %r12.global-to-local = alloca i64, align 8
  %r13.global-to-local = alloca i64, align 8
  %rbp.global-to-local = alloca i64, align 8
  %rsi.global-to-local = alloca i64, align 8
  store i64 %arg2, i64* %rsi.global-to-local, align 8
  store i64 %arg1, i64* @rdi, align 8
  %v0_f80 = load i64, i64* %r13.global-to-local, align 8
  %v0_f82 = load i64, i64* %r12.global-to-local, align 8
  %v0_f84 = load i64, i64* @rdi, align 8
  store i64 %v0_f84, i64* %r12.global-to-local, align 8
  %v0_f87 = load i64, i64* %rbp.global-to-local, align 8
  %v0_f88 = load i64, i64* @rbx, align 8
  %v0_f89 = load i64, i64* %rsi.global-to-local, align 8
  store i64 %v0_f89, i64* %rbp.global-to-local, align 8
  store i64 %v0_f89, i64* @rdi, align 8
  store i64 %v0_f89, i64* @rax, align 8
  %v4_f99 = trunc i64 %v0_f89 to i32
  %tmp246 = icmp slt i32 %v4_f99, 1
  br i1 %tmp246, label %dec_label_pc_fcf, label %dec_label_pc_f9d

dec_label_pc_f9d:                                 ; preds = %dec_label_pc_f80
  store i64 %v0_f89, i64* %r13.global-to-local, align 8
  store i64 1, i64* @rbx, align 8
  br label %dec_label_pc_fa8

dec_label_pc_fa8:                                 ; preds = %dec_label_pc_fa8, %dec_label_pc_f9d
  %v2_fca4 = phi i32 [ %v2_fb1, %dec_label_pc_fa8 ], [ 1, %dec_label_pc_f9d ]
  %v2_fb1 = add i32 %v2_fca4, 1
  %v17_fb1 = zext i32 %v2_fb1 to i64
  %v5_fcd = icmp slt i64 %v0_f89, %v17_fb1
  br i1 %v5_fcd, label %dec_label_pc_fcf.loopexit, label %dec_label_pc_fa8

dec_label_pc_fcf.loopexit:                        ; preds = %dec_label_pc_fa8
  store i64 %v0_f89, i64* @rax, align 8
  store i64 %v17_fb1, i64* @rbx, align 8
  store i64 %v0_f84, i64* @rdi, align 8
  store i64 %v0_f89, i64* @rdx, align 8
  br label %dec_label_pc_fcf

dec_label_pc_fcf:                                 ; preds = %dec_label_pc_fcf.loopexit, %dec_label_pc_f80
  store i64 %v0_f84, i64* @rax, align 8
  store i64 %v0_f88, i64* @rbx, align 8
  store i64 %v0_f87, i64* %rbp.global-to-local, align 8
  store i64 %v0_f82, i64* %r12.global-to-local, align 8
  store i64 %v0_f80, i64* %r13.global-to-local, align 8
  ret i64 %v0_f84
}

define i64 @"_ZN3org4luaj3vm23lib10IoLib$File3getEJPNS1_8LuaValueES5_"(i64 %arg1) local_unnamed_addr {
dec_label_pc_fe0:
  store i64 %arg1, i64* @rdi, align 8
  %v0_fe4 = load i64, i64* @rdi, align 8
  %v1_fe4 = add i64 %v0_fe4, 8
  %v2_fe4 = inttoptr i64 %v1_fe4 to i64*
  %v3_fe4 = load i64, i64* %v2_fe4, align 8
  store i64 %v3_fe4, i64* @rax, align 8
  %v1_fe8 = add i64 %v3_fe4, 48
  %v2_fe8 = inttoptr i64 %v1_fe8 to i64*
  %v3_fe8 = load i64, i64* %v2_fe8, align 8
  store i64 %v3_fe8, i64* @rdi, align 8
  %v1_fec = inttoptr i64 %v3_fe8 to i64*
  %v2_fec = load i64, i64* %v1_fec, align 8
  store i64 %v2_fec, i64* @rax, align 8
  ret i64 %v2_fec
}

define i64 @"_ZN3org4luaj3vm23lib10IoLib$File9typename$EJPN4java4lang6StringEv"() local_unnamed_addr {
dec_label_pc_1000:
  %v0_1000 = load i64, i64* inttoptr (i64 4103 to i64*), align 8
  store i64 %v0_1000, i64* @rax, align 8
  ret i64 %v0_1000
}

define i64 @_ZN3org4luaj3vm23lib10PackageLib11setIsLoadedEJvPN4java4lang6StringEPNS1_8LuaTableE(i64 %arg1, i64 %arg2, i64 %arg3) local_unnamed_addr {
dec_label_pc_1010:
  %rbp.global-to-local = alloca i64, align 8
  %rsi.global-to-local = alloca i64, align 8
  store i64 %arg3, i64* @rdx, align 8
  store i64 %arg2, i64* %rsi.global-to-local, align 8
  store i64 %arg1, i64* @rdi, align 8
  %v0_1010 = load i64, i64* %rbp.global-to-local, align 8
  %v0_1011 = load i64, i64* @rbx, align 8
  %v0_1012 = load i64, i64* @rdx, align 8
  store i64 %v0_1012, i64* %rbp.global-to-local, align 8
  %v0_1015 = load i64, i64* %rsi.global-to-local, align 8
  store i64 %v0_1015, i64* @rbx, align 8
  %v0_101c = load i64, i64* @rdi, align 8
  %v1_101c = add i64 %v0_101c, 32
  %v2_101c = inttoptr i64 %v1_101c to i64*
  %v3_101c = load i64, i64* %v2_101c, align 8
  store i64 %v3_101c, i64* @rdi, align 8
  %v0_1020 = load i64, i64* inttoptr (i64 4135 to i64*), align 8
  store i64 %v0_1020, i64* %rsi.global-to-local, align 8
  %v1_1027 = inttoptr i64 %v3_101c to i64*
  %v2_1027 = load i64, i64* %v1_1027, align 8
  store i64 %v2_1027, i64* @rax, align 8
  %v1_1030 = inttoptr i64 %v2_1027 to i64*
  %v2_1030 = load i64, i64* %v1_1030, align 8
  store i64 %v2_1030, i64* @rcx, align 8
  store i64 %v0_1015, i64* %rsi.global-to-local, align 8
  store i64 %v2_1027, i64* @rdi, align 8
  store i64 %v0_1011, i64* @rbx, align 8
  store i64 %v0_1010, i64* %rbp.global-to-local, align 8
  ret i64 %v2_1027
}

define i64 @_ZN3org4luaj3vm23lib10PackageLib9tojstringEJPN4java4lang6StringEv() local_unnamed_addr {
dec_label_pc_1050:
  %v0_1050 = load i64, i64* inttoptr (i64 4183 to i64*), align 8
  store i64 %v0_1050, i64* @rax, align 8
  ret i64 %v0_1050
}

define i64 @_ZN3org4luaj3vm23lib10PackageLib15isClassnamePartEJbw(i64 %arg1) local_unnamed_addr {
dec_label_pc_1060:
  store i64 %arg1, i64* @rdi, align 8
  %v0_1063 = load i64, i64* @rdi, align 8
  %v1_1063 = trunc i64 %v0_1063 to i32
  %v8_1066 = icmp sgt i32 %v1_1063, 96
  br i1 %v8_1066, label %dec_label_pc_1068, label %dec_label_pc_1098

dec_label_pc_1068:                                ; preds = %dec_label_pc_1060
  store i64 1, i64* @rax, align 8
  %v8_1070 = icmp sgt i32 %v1_1063, 122
  br i1 %v8_1070, label %dec_label_pc_1072, label %dec_label_pc_1094

dec_label_pc_1072:                                ; preds = %dec_label_pc_10a2, %dec_label_pc_109d, %dec_label_pc_1068, %dec_label_pc_10b0
  %v1_1072 = add i64 %v0_1063, -36
  store i64 %v1_1072, i64* @rcx, align 8
  store i64 0, i64* @rax, align 8
  %v1_1077 = trunc i64 %v1_1072 to i32
  %tmp257 = icmp ult i32 %v1_1077, 60
  br i1 %tmp257, label %dec_label_pc_107c, label %dec_label_pc_1094

dec_label_pc_107c:                                ; preds = %dec_label_pc_1072
  store i64 1, i64* @rax, align 8
  store i64 576460752303424513, i64* @rdx, align 8
  %v2_108b = urem i64 %v1_1072, 64
  %v4_108b = icmp eq i64 %v2_108b, 0
  br i1 %v4_108b, label %bb252, label %bb

bb:                                               ; preds = %dec_label_pc_107c
  %v5_108b = shl i64 1, %v2_108b
  store i64 %v5_108b, i64* @rax, align 8
  br label %bb252

bb252:                                            ; preds = %dec_label_pc_107c, %bb
  %v3_1091 = phi i64 [ 1, %dec_label_pc_107c ], [ %v5_108b, %bb ]
  %v2_108e = and i64 %v3_1091, 576460752303424513
  %v3_108e = icmp eq i64 %v2_108e, 0
  %v1_1091 = icmp eq i1 %v3_108e, false
  %v2_1091 = zext i1 %v1_1091 to i64
  %v4_1091 = and i64 %v3_1091, -256
  %v5_1091 = or i64 %v2_1091, %v4_1091
  store i64 %v5_1091, i64* @rax, align 8
  br label %dec_label_pc_1094

dec_label_pc_1094:                                ; preds = %dec_label_pc_1072, %dec_label_pc_1068, %bb252
  %v0_1094 = phi i64 [ 0, %dec_label_pc_1072 ], [ 1, %dec_label_pc_1068 ], [ %v5_1091, %bb252 ]
  ret i64 %v0_1094

dec_label_pc_1098:                                ; preds = %dec_label_pc_1060
  %v9_109b = icmp sgt i32 %v1_1063, 64
  br i1 %v9_109b, label %dec_label_pc_10b0, label %dec_label_pc_109d

dec_label_pc_109d:                                ; preds = %dec_label_pc_1098
  %v8_10a0 = icmp sgt i32 %v1_1063, 47
  br i1 %v8_10a0, label %dec_label_pc_10a2, label %dec_label_pc_1072

dec_label_pc_10a2:                                ; preds = %dec_label_pc_109d
  %v8_10a5 = icmp sgt i32 %v1_1063, 57
  br i1 %v8_10a5, label %dec_label_pc_1072, label %dec_label_pc_10b5

dec_label_pc_10b0:                                ; preds = %dec_label_pc_1098
  %v9_10b3 = icmp sgt i32 %v1_1063, 90
  br i1 %v9_10b3, label %dec_label_pc_1072, label %dec_label_pc_10b5

dec_label_pc_10b5:                                ; preds = %dec_label_pc_10a2, %dec_label_pc_10b0
  store i64 1, i64* @rax, align 8
  ret i64 1
}

define i64 @_ZN3org4luaj3vm23lib14VarArgFunction4callEJPNS1_8LuaValueEv(i64 %arg1) local_unnamed_addr {
dec_label_pc_10c0:
  store i64 %arg1, i64* @rdi, align 8
  %v2_10c4 = load i64, i64* @rdi, align 8
  store i64 %v2_10c4, i64* @rax, align 8
  store i64 %v2_10c4, i64* @rdx, align 8
  ret i64 %v2_10c4
}

define i64 @_ZN3org4luaj3vm23lib14VarArgFunction4callEJPNS1_8LuaValueES5_(i64 %arg1) local_unnamed_addr {
dec_label_pc_10f0:
  store i64 %arg1, i64* @rdi, align 8
  %v2_10f4 = load i64, i64* @rdi, align 8
  store i64 %v2_10f4, i64* @rax, align 8
  store i64 %v2_10f4, i64* @rdx, align 8
  ret i64 %v2_10f4
}

define i64 @_ZN3org4luaj3vm23lib14VarArgFunction6invokeEJPNS1_7VarargsES5_(i64 %arg1) local_unnamed_addr {
dec_label_pc_1110:
  store i64 %arg1, i64* @rdi, align 8
  %v2_1114 = load i64, i64* @rdi, align 8
  store i64 %v2_1114, i64* @rax, align 8
  store i64 %v2_1114, i64* @rdx, align 8
  ret i64 %v2_1114
}

define i64 @_ZN3org4luaj3vm23lib14VarArgFunction8onInvokeEJPNS1_7VarargsES5_(i64 %arg1) local_unnamed_addr {
dec_label_pc_1130:
  store i64 %arg1, i64* @rdi, align 8
  %v2_1134 = load i64, i64* @rdi, align 8
  store i64 %v2_1134, i64* @rax, align 8
  ret i64 %v2_1134
}

define i64 @_ZN3org4luaj3vm23lib16ThreeArgFunction4callEJPNS1_8LuaValueEv(i64 %arg1) local_unnamed_addr {
dec_label_pc_1150:
  store i64 %arg1, i64* @rdi, align 8
  %v0_1154 = load i64, i64* inttoptr (i64 4443 to i64*), align 8
  %v2_115b = load i64, i64* @rdi, align 8
  store i64 %v2_115b, i64* @rax, align 8
  store i64 %v0_1154, i64* @rcx, align 8
  store i64 %v0_1154, i64* @rdx, align 8
  ret i64 %v2_115b
}

define i64 @_ZN3org4luaj3vm23lib16ThreeArgFunction4callEJPNS1_8LuaValueES5_(i64 %arg1) local_unnamed_addr {
dec_label_pc_1170:
  store i64 %arg1, i64* @rdi, align 8
  %v0_1174 = load i64, i64* inttoptr (i64 4475 to i64*), align 8
  store i64 %v0_1174, i64* @rdx, align 8
  %v2_117b = load i64, i64* @rdi, align 8
  store i64 %v2_117b, i64* @rax, align 8
  store i64 %v0_1174, i64* @rcx, align 8
  ret i64 %v2_117b
}

define i64 @_ZN3org4luaj3vm23lib16ThreeArgFunction4callEJPNS1_8LuaValueES5_S5_(i64 %arg1) local_unnamed_addr {
dec_label_pc_1190:
  store i64 %arg1, i64* @rdi, align 8
  %v2_1194 = load i64, i64* @rdi, align 8
  store i64 %v2_1194, i64* @rax, align 8
  %v0_1197 = load i64, i64* inttoptr (i64 4510 to i64*), align 8
  store i64 %v0_1197, i64* @rcx, align 8
  ret i64 %v2_1194
}

define i64 @_ZN3org4luaj3vm23lib16ThreeArgFunction6invokeEJPNS1_7VarargsES5_(i64 %arg1, i64 %arg2) local_unnamed_addr {
dec_label_pc_11b0:
  %rsi.global-to-local = alloca i64, align 8
  store i64 %arg2, i64* %rsi.global-to-local, align 8
  store i64 %arg1, i64* @rdi, align 8
  %v0_11b6 = load i64, i64* %rsi.global-to-local, align 8
  store i64 2, i64* @rax, align 8
  store i64 2, i64* @rcx, align 8
  store i64 %v0_11b6, i64* @rdx, align 8
  ret i64 2
}

define i64 @"_ZN3org4luaj3vm23lib11MathLib$max6invokeEJPNS1_7VarargsES5_"(i64 %arg1, i64 %arg2) local_unnamed_addr {
dec_label_pc_1210:
  %rsi.global-to-local = alloca i64, align 8
  store i64 %arg2, i64* %rsi.global-to-local, align 8
  store i64 %arg1, i64* @rdi, align 8
  %v0_1214 = load i64, i64* %rsi.global-to-local, align 8
  store i64 1, i64* %rsi.global-to-local, align 8
  store i64 %v0_1214, i64* @rdi, align 8
  store i64 %v0_1214, i64* @rax, align 8
  ret i64 %v0_1214
}

define i64 @_ZN3org4luaj3vm23lib7MathLib18__U3c_clinit__U3e_EJvv() local_unnamed_addr {
dec_label_pc_1290:
  store i64 0, i64* @global_var_129b.7475, align 8
  %v0_129b = load i64, i64* @rax, align 8
  ret i64 %v0_129b
}

define i64 @"_ZN3org4luaj3vm23lib11MathLib$exp4callEJdd"(i64 %arg1) local_unnamed_addr {
dec_label_pc_12a0:
  %xmm0.global-to-local = alloca i128, align 8
  store i64 %arg1, i64* @rdi, align 8
  %v0_12a4 = load i64, i64* @rdi, align 8
  %v1_12a4 = add i64 %v0_12a4, 24
  %v2_12a4 = inttoptr i64 %v1_12a4 to i64*
  %v3_12a4 = load i64, i64* %v2_12a4, align 8
  store i64 %v3_12a4, i64* @rdi, align 8
  %v0_12a8 = load i128, i128* %xmm0.global-to-local, align 8
  %v1_12a8 = call i128 @__asm_movapd(i128 %v0_12a8)
  %v0_12ac = load i64, i64* inttoptr (i64 4788 to i64*), align 8
  %v1_12ac = call i128 @__asm_movsd(i64 %v0_12ac)
  store i128 %v1_12ac, i128* %xmm0.global-to-local, align 8
  %v0_12b4 = load i64, i64* @rdi, align 8
  %v1_12b4 = inttoptr i64 %v0_12b4 to i64*
  %v2_12b4 = load i64, i64* %v1_12b4, align 8
  store i64 %v2_12b4, i64* @rax, align 8
  ret i64 %v2_12b4
}

define i128 @"_ZN3org4luaj3vm23lib13MathLib$ldexp4callEJddd"() local_unnamed_addr {
dec_label_pc_12d0:
  %cf.global-to-local = alloca i1, align 1
  %xmm0.global-to-local = alloca i128, align 8
  %xmm1.global-to-local = alloca i128, align 8
  %v0_12d0 = load i128, i128* %xmm1.global-to-local, align 8
  %v1_12d0 = load i64, i64* inttoptr (i64 4824 to i64*), align 8
  call void @__asm_ucomisd.7467(i128 %v0_12d0, i64 %v1_12d0)
  %v0_12d8 = load i1, i1* %cf.global-to-local, align 1
  %v1_12d8 = icmp eq i1 %v0_12d8, false
  br i1 %v1_12d8, label %dec_label_pc_1320, label %dec_label_pc_12da

dec_label_pc_12da:                                ; preds = %dec_label_pc_12d0
  %v2_12d8 = load i128, i128* %xmm0.global-to-local, align 8
  ret i128 %v2_12d8

dec_label_pc_1320:                                ; preds = %dec_label_pc_12d0
  %v0_1320 = load i64, i64* inttoptr (i64 4904 to i64*), align 8
  %v1_1320 = call i128 @__asm_movsd(i64 %v0_1320)
  store i128 %v1_1320, i128* %xmm1.global-to-local, align 8
  %v0_1328 = load i128, i128* %xmm0.global-to-local, align 8
  %v2_1328 = call i128 @__asm_mulsd(i128 %v0_1328, i128 %v1_1320)
  store i128 %v2_1328, i128* %xmm0.global-to-local, align 8
  ret i128 %v2_1328
}

define i128 @"_ZN3org4luaj3vm23lib11MathLib$abs4callEJdd"() local_unnamed_addr {
dec_label_pc_1330:
  %xmm0.global-to-local = alloca i128, align 8
  %v0_1330 = load i128, i128* %xmm0.global-to-local, align 8
  %v1_1330 = load i128, i128* inttoptr (i64 4920 to i128*), align 8
  %v2_1330 = call i128 @__asm_andpd(i128 %v0_1330, i128 %v1_1330)
  store i128 %v2_1330, i128* %xmm0.global-to-local, align 8
  ret i128 %v2_1330
}

define i64 @"_ZN3org4luaj3vm23lib11MathLib$min6invokeEJPNS1_7VarargsES5_"() local_unnamed_addr {
dec_label_pc_1340:
  %tmp234 = load i64, i64* @rax, align 8
  ret i64 %tmp234
}

define i64 @function_1348(i64 %arg1, i64 %arg2, i64 %arg3, i64 %arg4) local_unnamed_addr {
dec_label_pc_1348:
  %r13.global-to-local = alloca i64, align 8
  %rbp.global-to-local = alloca i64, align 8
  %rsi.global-to-local = alloca i64, align 8
  store i64 %arg2, i64* %rsi.global-to-local, align 8
  store i64 %arg1, i64* @rdi, align 8
  %v0_1349 = load i64, i64* %rbp.global-to-local, align 8
  %v0_134a = load i64, i64* %r13.global-to-local, align 8
  %v0_134d = load i64, i64* @rbx, align 8
  %v2_134e = load i64, i64* %rsi.global-to-local, align 8
  store i64 1, i64* %rsi.global-to-local, align 8
  store i64 %v0_134a, i64* @rax, align 8
  store i64 %v0_134a, i64* @rdi, align 8
  %v1_1369 = trunc i64 %v0_134a to i32
  %v9_136c = icmp sgt i32 %v1_1369, 1
  br i1 %v9_136c, label %dec_label_pc_136e, label %dec_label_pc_13af

dec_label_pc_136e:                                ; preds = %dec_label_pc_1348
  store i64 2, i64* @rbx, align 8
  %v4_13a1 = trunc i64 %v0_134a to i8
  %v5_13a1 = icmp eq i8 %v4_13a1, 0
  %v1_13a3 = icmp eq i1 %v5_13a1, false
  br label %dec_label_pc_1380

dec_label_pc_1380:                                ; preds = %dec_label_pc_1380, %dec_label_pc_136e
  %v4_13a33 = phi i64 [ %v4_13a3, %dec_label_pc_1380 ], [ %v2_134e, %dec_label_pc_136e ]
  %v17_13a72 = phi i32 [ %v2_13a7, %dec_label_pc_1380 ], [ 2, %dec_label_pc_136e ]
  %v4_13a3 = select i1 %v1_13a3, i64 %v0_134a, i64 %v4_13a33
  %v2_13a7 = add i32 %v17_13a72, 1
  %v17_13a7 = zext i32 %v2_13a7 to i64
  %v5_13ad = icmp slt i64 %v0_134a, %v17_13a7
  br i1 %v5_13ad, label %dec_label_pc_13af.loopexit, label %dec_label_pc_1380

dec_label_pc_13af.loopexit:                       ; preds = %dec_label_pc_1380
  store i64 %v0_134a, i64* @rax, align 8
  store i64 %v17_13a7, i64* @rbx, align 8
  store i64 %v4_13a33, i64* %rsi.global-to-local, align 8
  store i64 %v0_134a, i64* @rdi, align 8
  store i64 %v0_134a, i64* %rbp.global-to-local, align 8
  br label %dec_label_pc_13af

dec_label_pc_13af:                                ; preds = %dec_label_pc_13af.loopexit, %dec_label_pc_1348
  %v0_13af = phi i64 [ %v4_13a3, %dec_label_pc_13af.loopexit ], [ %v2_134e, %dec_label_pc_1348 ]
  store i64 %v0_13af, i64* @rax, align 8
  store i64 %v0_134d, i64* @rbx, align 8
  store i64 %v0_1349, i64* %rbp.global-to-local, align 8
  store i64 %arg3, i64* %r13.global-to-local, align 8
  ret i64 %v0_13af
}

define i64 @"_ZN3org4luaj3vm23lib18DebugLib$CallFrame3setEJvPNS1_10LuaClosureEPNS1_7VarargsEP6JArrayIPNS1_8LuaValueEE"(i64 %arg1, i64 %arg2, i64 %arg3, i64 %arg4) local_unnamed_addr {
dec_label_pc_13c0:
  store i64 %arg4, i64* @rcx, align 8
  store i64 %arg3, i64* @rdx, align 8
  store i64 %arg1, i64* @rdi, align 8
  %v2_13c0 = add i64 %arg1, 8
  %v3_13c0 = inttoptr i64 %v2_13c0 to i64*
  store i64 %arg2, i64* %v3_13c0, align 8
  %v0_13c4 = load i64, i64* @rdx, align 8
  %v1_13c4 = load i64, i64* @rdi, align 8
  %v2_13c4 = add i64 %v1_13c4, 24
  %v3_13c4 = inttoptr i64 %v2_13c4 to i64*
  store i64 %v0_13c4, i64* %v3_13c4, align 8
  %v0_13c8 = load i64, i64* @rcx, align 8
  %v1_13c8 = load i64, i64* @rdi, align 8
  %v2_13c8 = add i64 %v1_13c8, 32
  %v3_13c8 = inttoptr i64 %v2_13c8 to i64*
  store i64 %v0_13c8, i64* %v3_13c8, align 8
  %v0_13cc = load i64, i64* @rax, align 8
  ret i64 %v0_13cc
}

define i64 @"_ZN3org4luaj3vm23lib18DebugLib$CallFrame3setEJvPNS1_11LuaFunctionE"(i64 %arg1, i64 %arg2) local_unnamed_addr {
dec_label_pc_13d0:
  store i64 %arg1, i64* @rdi, align 8
  %v2_13d0 = add i64 %arg1, 8
  %v3_13d0 = inttoptr i64 %v2_13d0 to i64*
  store i64 %arg2, i64* %v3_13d0, align 8
  %v0_13d4 = load i64, i64* @rax, align 8
  ret i64 %v0_13d4
}

define i64 @"_ZN3org4luaj3vm23lib18DebugLib$CallFrame5resetEJvv"(i64 %arg1) local_unnamed_addr {
dec_label_pc_13e0:
  store i64 %arg1, i64* @rdi, align 8
  %v1_13e0 = add i64 %arg1, 8
  %v2_13e0 = inttoptr i64 %v1_13e0 to i64*
  store i64 0, i64* %v2_13e0, align 8
  %v0_13e8 = load i64, i64* @rdi, align 8
  %v1_13e8 = add i64 %v0_13e8, 24
  %v2_13e8 = inttoptr i64 %v1_13e8 to i64*
  store i64 0, i64* %v2_13e8, align 8
  %v0_13f0 = load i64, i64* @rdi, align 8
  %v1_13f0 = add i64 %v0_13f0, 32
  %v2_13f0 = inttoptr i64 %v1_13f0 to i64*
  store i64 0, i64* %v2_13f0, align 8
  %v0_13f8 = load i64, i64* @rax, align 8
  ret i64 %v0_13f8
}

define i64 @"_ZN3org4luaj3vm23lib18DebugLib$CallFrame11linedefinedEJiv"(i64 %arg1) local_unnamed_addr {
dec_label_pc_1400:
  store i64 %arg1, i64* @rdi, align 8
  %v0_1400 = load i64, i64* @rbx, align 8
  %v0_1401 = load i64, i64* @rdi, align 8
  store i64 %v0_1401, i64* @rbx, align 8
  %v1_1404 = add i64 %v0_1401, 8
  %v2_1404 = inttoptr i64 %v1_1404 to i64*
  %v3_1404 = load i64, i64* %v2_1404, align 8
  store i64 %v3_1404, i64* @rdi, align 8
  %v1_1408 = inttoptr i64 %v3_1404 to i64*
  %v2_1408 = load i64, i64* %v1_1408, align 8
  store i64 %v2_1408, i64* @rax, align 8
  %v4_1411 = trunc i64 %v2_1408 to i8
  %v5_1411 = icmp eq i8 %v4_1411, 0
  store i64 4294967295, i64* @rdx, align 8
  br i1 %v5_1411, label %dec_label_pc_142e, label %dec_label_pc_141a

dec_label_pc_141a:                                ; preds = %dec_label_pc_1400
  %v3_141a = load i64, i64* %v2_1404, align 8
  store i64 %v3_141a, i64* @rdi, align 8
  %v1_141e = inttoptr i64 %v3_141a to i64*
  %v2_141e = load i64, i64* %v1_141e, align 8
  store i64 %v2_141e, i64* @rax, align 8
  %v1_1427 = add i64 %v2_141e, 8
  %v2_1427 = inttoptr i64 %v1_1427 to i64*
  %v3_1427 = load i64, i64* %v2_1427, align 8
  store i64 %v3_1427, i64* @rax, align 8
  %v1_142b = add i64 %v3_1427, 64
  %v2_142b = inttoptr i64 %v1_142b to i32*
  %v3_142b = load i32, i32* %v2_142b, align 4
  %v4_142b = zext i32 %v3_142b to i64
  store i64 %v4_142b, i64* @rdx, align 8
  br label %dec_label_pc_142e

dec_label_pc_142e:                                ; preds = %dec_label_pc_141a, %dec_label_pc_1400
  %v0_142e = phi i64 [ %v4_142b, %dec_label_pc_141a ], [ 4294967295, %dec_label_pc_1400 ]
  store i64 %v0_142e, i64* @rax, align 8
  store i64 %v0_1400, i64* @rbx, align 8
  ret i64 %v0_142e
}

define i64 @"_ZN3org4luaj3vm23lib18DebugLib$CallFrame12getlocalnameEJPNS1_9LuaStringEi"(i64 %arg1, i64 %arg2) local_unnamed_addr {
dec_label_pc_1440:
  %rbp.global-to-local = alloca i64, align 8
  %rsi.global-to-local = alloca i64, align 8
  store i64 %arg2, i64* %rsi.global-to-local, align 8
  store i64 %arg1, i64* @rdi, align 8
  %v0_1440 = load i64, i64* %rbp.global-to-local, align 8
  %v0_1441 = load i64, i64* @rbx, align 8
  %v0_1442 = load i64, i64* @rdi, align 8
  store i64 %v0_1442, i64* @rbx, align 8
  %v0_1445 = load i64, i64* %rsi.global-to-local, align 8
  store i64 %v0_1445, i64* %rbp.global-to-local, align 8
  %v1_144b = add i64 %v0_1442, 8
  %v2_144b = inttoptr i64 %v1_144b to i64*
  %v3_144b = load i64, i64* %v2_144b, align 8
  store i64 %v3_144b, i64* @rdi, align 8
  %v1_144f = inttoptr i64 %v3_144b to i64*
  %v2_144f = load i64, i64* %v1_144f, align 8
  store i64 %v2_144f, i64* @rdx, align 8
  store i64 0, i64* @rax, align 8
  %v4_145c = trunc i64 %v2_144f to i8
  %v5_145c = icmp eq i8 %v4_145c, 0
  br i1 %v5_145c, label %dec_label_pc_147c, label %dec_label_pc_1460

dec_label_pc_1460:                                ; preds = %dec_label_pc_1440
  %v3_1460 = load i64, i64* %v2_144b, align 8
  store i64 %v3_1460, i64* @rdi, align 8
  %v1_1464 = inttoptr i64 %v3_1460 to i64*
  %v2_1464 = load i64, i64* %v1_1464, align 8
  store i64 %v2_1464, i64* @rax, align 8
  %v1_146d = add i64 %v2_1464, 8
  %v2_146d = inttoptr i64 %v1_146d to i64*
  %v3_146d = load i64, i64* %v2_146d, align 8
  store i64 %v3_146d, i64* @rdi, align 8
  %v1_1471 = add i64 %v0_1442, 16
  %v2_1471 = inttoptr i64 %v1_1471 to i32*
  %v3_1471 = load i32, i32* %v2_1471, align 4
  %v4_1471 = zext i32 %v3_1471 to i64
  store i64 %v4_1471, i64* @rdx, align 8
  %v1_1476 = inttoptr i64 %v3_146d to i64*
  %v2_1476 = load i64, i64* %v1_1476, align 8
  store i64 %v2_1476, i64* @rax, align 8
  br label %dec_label_pc_147c

dec_label_pc_147c:                                ; preds = %dec_label_pc_1460, %dec_label_pc_1440
  %v0_1482 = phi i64 [ %v2_1476, %dec_label_pc_1460 ], [ 0, %dec_label_pc_1440 ]
  store i64 %v0_1441, i64* @rbx, align 8
  store i64 %v0_1440, i64* %rbp.global-to-local, align 8
  ret i64 %v0_1482
}

define i64 @"_ZN3org4luaj3vm23lib17DebugLib$setlocal6invokeEJPNS1_7VarargsES5_"(i64 %arg1, i64 %arg2) local_unnamed_addr {
dec_label_pc_1490:
  %r12.global-to-local = alloca i64, align 8
  %r13.global-to-local = alloca i64, align 8
  %r14.global-to-local = alloca i64, align 8
  %r15.global-to-local = alloca i64, align 8
  %rbp.global-to-local = alloca i64, align 8
  %rsi.global-to-local = alloca i64, align 8
  store i64 %arg2, i64* %rsi.global-to-local, align 8
  store i64 %arg1, i64* @rdi, align 8
  %v0_1490 = load i64, i64* %r15.global-to-local, align 8
  %v0_1492 = load i64, i64* %r14.global-to-local, align 8
  %v0_1494 = load i64, i64* @rdi, align 8
  store i64 %v0_1494, i64* %r14.global-to-local, align 8
  %v0_1497 = load i64, i64* %r13.global-to-local, align 8
  %v0_1499 = load i64, i64* %r12.global-to-local, align 8
  %v0_149b = load i64, i64* %rbp.global-to-local, align 8
  %v0_149c = load i64, i64* @rbx, align 8
  %v0_149d = load i64, i64* %rsi.global-to-local, align 8
  store i64 %v0_149d, i64* @rbx, align 8
  store i64 %v0_149d, i64* @rdi, align 8
  store i64 %v0_149d, i64* @rax, align 8
  store i64 1, i64* %rsi.global-to-local, align 8
  %v4_14b5 = trunc i64 %v0_149d to i8
  %v5_14b5 = icmp eq i8 %v4_14b5, 0
  %v1_14b7 = icmp eq i1 %v5_14b5, false
  br i1 %v1_14b7, label %dec_label_pc_1570, label %dec_label_pc_14bd

dec_label_pc_14bd:                                ; preds = %dec_label_pc_1490
  %v1_14bd = add i64 %v0_1494, 24
  %v2_14bd = inttoptr i64 %v1_14bd to i64*
  %v3_14bd = load i64, i64* %v2_14bd, align 8
  store i64 %v3_14bd, i64* @rax, align 8
  store i64 3, i64* %r15.global-to-local, align 8
  store i64 2, i64* %r12.global-to-local, align 8
  store i64 1, i64* %rsi.global-to-local, align 8
  %v1_14d2 = add i64 %v3_14bd, 24
  %v2_14d2 = inttoptr i64 %v1_14d2 to i64*
  %v3_14d2 = load i64, i64* %v2_14d2, align 8
  store i64 %v3_14d2, i64* @rax, align 8
  %v1_14d6 = add i64 %v3_14d2, 72
  %v2_14d6 = inttoptr i64 %v1_14d6 to i64*
  %storemerge.pre = load i64, i64* %v2_14d6, align 8
  br label %dec_label_pc_14da

dec_label_pc_14da:                                ; preds = %dec_label_pc_1570, %dec_label_pc_14bd
  %v2_1506.pre-phi = phi i64* [ %.pre6, %dec_label_pc_1570 ], [ %v2_14bd, %dec_label_pc_14bd ]
  %storemerge = phi i64 [ 1, %dec_label_pc_1570 ], [ %storemerge.pre, %dec_label_pc_14bd ]
  %v0_1500 = phi i64 [ 4, %dec_label_pc_1570 ], [ 3, %dec_label_pc_14bd ]
  %v0_152c = phi i64 [ 3, %dec_label_pc_1570 ], [ 2, %dec_label_pc_14bd ]
  %v0_152f = phi i64 [ 2, %dec_label_pc_1570 ], [ 1, %dec_label_pc_14bd ]
  store i64 %storemerge, i64* %r13.global-to-local, align 8
  store i64 %v0_152f, i64* %rbp.global-to-local, align 8
  store i64 %v0_152f, i64* %r12.global-to-local, align 8
  store i64 %v0_152c, i64* @rax, align 8
  store i64 %v0_149d, i64* @rdi, align 8
  store i64 %v0_1500, i64* %rsi.global-to-local, align 8
  %v3_1506 = load i64, i64* %v2_1506.pre-phi, align 8
  store i64 %v3_1506, i64* @rdi, align 8
  store i64 %v0_152c, i64* @rbx, align 8
  store i64 %storemerge, i64* %rsi.global-to-local, align 8
  %v1_1510 = inttoptr i64 %v3_1506 to i64*
  %v2_1510 = load i64, i64* %v1_1510, align 8
  store i64 %v2_1510, i64* @rax, align 8
  %v1_1519 = inttoptr i64 %v2_1510 to i64*
  %v2_1519 = load i64, i64* %v1_1519, align 8
  store i64 %v2_1519, i64* @rdx, align 8
  store i64 %v0_152f, i64* %rsi.global-to-local, align 8
  store i64 %v2_1510, i64* @rdi, align 8
  %v1_1524 = icmp eq i64 %v2_1510, 0
  br i1 %v1_1524, label %dec_label_pc_1550, label %dec_label_pc_1529

dec_label_pc_1529:                                ; preds = %dec_label_pc_14da
  %v2_1529 = load i64, i64* %v1_1519, align 8
  store i64 %v2_1529, i64* @rcx, align 8
  store i64 %v0_152c, i64* @rdx, align 8
  store i64 %v0_152f, i64* %rsi.global-to-local, align 8
  store i64 %v2_1510, i64* @rdi, align 8
  store i64 %v0_149c, i64* @rbx, align 8
  store i64 %v0_149b, i64* %rbp.global-to-local, align 8
  store i64 %v0_1499, i64* %r12.global-to-local, align 8
  store i64 %v0_1497, i64* %r13.global-to-local, align 8
  store i64 %v0_1492, i64* %r14.global-to-local, align 8
  store i64 %v0_1490, i64* %r15.global-to-local, align 8
  ret i64 %v2_1510

dec_label_pc_1550:                                ; preds = %dec_label_pc_14da
  %v0_1550 = load i64, i64* inttoptr (i64 5463 to i64*), align 8
  store i64 %v0_1550, i64* @rax, align 8
  store i64 %v0_149c, i64* @rbx, align 8
  store i64 %v0_149b, i64* %rbp.global-to-local, align 8
  store i64 %v0_1499, i64* %r12.global-to-local, align 8
  store i64 %v0_1497, i64* %r13.global-to-local, align 8
  store i64 %v0_1492, i64* %r14.global-to-local, align 8
  store i64 %v0_1490, i64* %r15.global-to-local, align 8
  ret i64 %v0_1550

dec_label_pc_1570:                                ; preds = %dec_label_pc_1490
  store i64 1, i64* @rax, align 8
  store i64 %v0_149d, i64* @rdi, align 8
  store i64 4, i64* %r15.global-to-local, align 8
  store i64 3, i64* %r12.global-to-local, align 8
  store i64 2, i64* %rsi.global-to-local, align 8
  %.pre = add i64 %v0_1494, 24
  %.pre6 = inttoptr i64 %.pre to i64*
  br label %dec_label_pc_14da
}

define i64 @_ZN3org4luaj3vm23lib8DebugLib9tracebackEJPN4java4lang6StringEi(i64 %arg1, i64 %arg2) local_unnamed_addr {
dec_label_pc_15a0:
  store i64 %arg1, i64* @rdi, align 8
  %v2_15a1 = load i64, i64* @rdi, align 8
  store i64 %v2_15a1, i64* @rax, align 8
  store i64 %v2_15a1, i64* @rdx, align 8
  ret i64 %v2_15a1
}

define i64 @"_ZN3org4luaj3vm23lib8DebugLib9callstackEJPNS2_18DebugLib$CallStackEv"(i64 %arg1) local_unnamed_addr {
dec_label_pc_15c0:
  store i64 %arg1, i64* @rdi, align 8
  %v0_15c4 = load i64, i64* @rdi, align 8
  store i64 %v0_15c4, i64* @rax, align 8
  ret i64 %v0_15c4
}

define i64 @"_ZN3org4luaj3vm23lib21DebugLib$getuservalue4callEJPNS1_8LuaValueES5_"(i64 %arg1, i64 %arg2) local_unnamed_addr {
dec_label_pc_15e0:
  store i64 %arg1, i64* @rdi, align 8
  %v0_15e3 = load i64, i64* @rbx, align 8
  store i64 %arg2, i64* @rbx, align 8
  store i64 %arg2, i64* @rdi, align 8
  %v4_15f0 = trunc i64 %arg2 to i8
  %v5_15f0 = icmp eq i8 %v4_15f0, 0
  store i64 %arg2, i64* @rax, align 8
  %v2_15f5 = load i64, i64* inttoptr (i64 5629 to i64*), align 8
  %v3_15f5 = select i1 %v5_15f0, i64 %v2_15f5, i64 %arg2
  store i64 %v3_15f5, i64* @rax, align 8
  store i64 %v0_15e3, i64* @rbx, align 8
  ret i64 %v3_15f5
}

define i64 @"_ZN3org4luaj3vm23lib20DebugLib$getregistry4callEJPNS1_8LuaValueEv"() local_unnamed_addr {
dec_label_pc_1600:
  %tmp234 = load i64, i64* @rax, align 8
  ret i64 %tmp234
}

define i64 @function_1605() local_unnamed_addr {
dec_label_pc_1605:
  %v0_1605 = load i64, i64* @rax, align 8
  %v1_1605 = add i64 %v0_1605, 24
  %v2_1605 = inttoptr i64 %v1_1605 to i32*
  %v3_1605 = load i32, i32* %v2_1605, align 4
  %v4_1605 = zext i32 %v3_1605 to i64
  store i64 %v4_1605, i64* @rax, align 8
  ret i64 %v4_1605
}

define i64 @"_ZN3org4luaj3vm23lib21DebugLib$getmetatable4callEJPNS1_8LuaValueES5_"(i64 %arg1, i64 %arg2) local_unnamed_addr {
dec_label_pc_1610:
  store i64 %arg1, i64* @rdi, align 8
  store i64 %arg2, i64* @rax, align 8
  store i64 %arg2, i64* @rdi, align 8
  %v1_1620 = icmp eq i64 %arg2, 0
  %v2_1623 = load i64, i64* inttoptr (i64 5675 to i64*), align 8
  %v3_1623 = select i1 %v1_1620, i64 %v2_1623, i64 %arg2
  store i64 %v3_1623, i64* @rax, align 8
  ret i64 %v3_1623
}

define i64 @"_ZN3org4luaj3vm23lib14DebugLib$debug4callEJPNS1_8LuaValueEv"() local_unnamed_addr {
dec_label_pc_1630:
  %tmp234 = load i64, i64* @rax, align 8
  ret i64 %tmp234
}

define i64 @function_1633() local_unnamed_addr {
dec_label_pc_1633:
  %v2_1633 = load i8, i8* bitcast (i64* @rax to i8*), align 8
  %v3_1633 = load i64, i64* @rax, align 8
  %v4_1633 = trunc i64 %v3_1633 to i8
  %v5_1633 = add i8 %v4_1633, %v2_1633
  %v21_1633 = inttoptr i64 %v3_1633 to i8*
  store i8 %v5_1633, i8* %v21_1633, align 1
  %v2_1635 = load i8, i8* bitcast (i64* @rax to i8*), align 8
  %v3_1635 = load i64, i64* @rax, align 8
  %v4_1635 = trunc i64 %v3_1635 to i8
  %v5_1635 = add i8 %v4_1635, %v2_1635
  %v21_1635 = inttoptr i64 %v3_1635 to i8*
  store i8 %v5_1635, i8* %v21_1635, align 1
  %v0_1637 = load i64, i64* @rax, align 8
  ret i64 %v0_1637
}

define i64 @"_ZN3org4luaj3vm23lib17DebugLib$getlocal6invokeEJPNS1_7VarargsES5_"(i64 %arg1, i64 %arg2) local_unnamed_addr {
dec_label_pc_1640:
  %r12.global-to-local = alloca i64, align 8
  %r13.global-to-local = alloca i64, align 8
  %r14.global-to-local = alloca i64, align 8
  %rbp.global-to-local = alloca i64, align 8
  %rsi.global-to-local = alloca i64, align 8
  store i64 %arg2, i64* %rsi.global-to-local, align 8
  store i64 %arg1, i64* @rdi, align 8
  %v0_1640 = load i64, i64* %r14.global-to-local, align 8
  %v0_1642 = load i64, i64* %r13.global-to-local, align 8
  %v0_1644 = load i64, i64* %r12.global-to-local, align 8
  %v0_1646 = load i64, i64* %rbp.global-to-local, align 8
  %v0_1647 = load i64, i64* @rdi, align 8
  store i64 %v0_1647, i64* %rbp.global-to-local, align 8
  %v0_164a = load i64, i64* @rbx, align 8
  %v2_164b = load i64, i64* %rsi.global-to-local, align 8
  store i64 %v2_164b, i64* @rax, align 8
  store i64 %v2_164b, i64* @rbx, align 8
  store i64 %v2_164b, i64* @rdi, align 8
  store i64 1, i64* %rsi.global-to-local, align 8
  %v4_165f = trunc i64 %v2_164b to i8
  %v5_165f = icmp eq i8 %v4_165f, 0
  %v1_1661 = icmp eq i1 %v5_165f, false
  br i1 %v1_1661, label %dec_label_pc_16e0, label %dec_label_pc_1663

dec_label_pc_1663:                                ; preds = %dec_label_pc_1640
  %v1_1663 = add i64 %v0_1647, 24
  %v2_1663 = inttoptr i64 %v1_1663 to i64*
  %v3_1663 = load i64, i64* %v2_1663, align 8
  store i64 %v3_1663, i64* @rax, align 8
  store i64 2, i64* %r14.global-to-local, align 8
  store i64 1, i64* %rsi.global-to-local, align 8
  %v1_1672 = add i64 %v3_1663, 24
  %v2_1672 = inttoptr i64 %v1_1672 to i64*
  %v3_1672 = load i64, i64* %v2_1672, align 8
  store i64 %v3_1672, i64* @rax, align 8
  %v1_1676 = add i64 %v3_1672, 72
  %v2_1676 = inttoptr i64 %v1_1676 to i64*
  %v3_1676 = load i64, i64* %v2_1676, align 8
  br label %dec_label_pc_167a

dec_label_pc_167a:                                ; preds = %dec_label_pc_16e0, %dec_label_pc_1663
  %v2_1698.pre-phi = phi i64* [ %.pre4, %dec_label_pc_16e0 ], [ %v2_1663, %dec_label_pc_1663 ]
  %storemerge = phi i64 [ 1, %dec_label_pc_16e0 ], [ %v3_1676, %dec_label_pc_1663 ]
  %v0_168f = phi i64 [ 3, %dec_label_pc_16e0 ], [ 2, %dec_label_pc_1663 ]
  %v0_16be = phi i64 [ 2, %dec_label_pc_16e0 ], [ 1, %dec_label_pc_1663 ]
  store i64 %storemerge, i64* %r13.global-to-local, align 8
  store i64 %v0_16be, i64* %r12.global-to-local, align 8
  store i64 %v0_16be, i64* @rax, align 8
  store i64 %v2_164b, i64* @rdi, align 8
  store i64 %v0_168f, i64* %rsi.global-to-local, align 8
  %v3_1698 = load i64, i64* %v2_1698.pre-phi, align 8
  store i64 %v3_1698, i64* @rdi, align 8
  store i64 %v0_16be, i64* @rbx, align 8
  store i64 %storemerge, i64* %rsi.global-to-local, align 8
  %v1_16a1 = inttoptr i64 %v3_1698 to i64*
  %v2_16a1 = load i64, i64* %v1_16a1, align 8
  store i64 %v2_16a1, i64* @rax, align 8
  %v1_16aa = inttoptr i64 %v2_16a1 to i64*
  %v2_16aa = load i64, i64* %v1_16aa, align 8
  store i64 %v2_16aa, i64* @rdx, align 8
  store i64 %v0_16be, i64* %rsi.global-to-local, align 8
  store i64 %v2_16a1, i64* @rdi, align 8
  %v1_16b6 = icmp eq i64 %v2_16a1, 0
  br i1 %v1_16b6, label %dec_label_pc_16d0, label %dec_label_pc_16bb

dec_label_pc_16bb:                                ; preds = %dec_label_pc_167a
  %v2_16bb = load i64, i64* %v1_16aa, align 8
  store i64 %v2_16bb, i64* @rdx, align 8
  store i64 %v0_16be, i64* %rsi.global-to-local, align 8
  store i64 %v2_16a1, i64* @rdi, align 8
  store i64 %v0_164a, i64* @rbx, align 8
  store i64 %v0_1646, i64* %rbp.global-to-local, align 8
  store i64 %v0_1644, i64* %r12.global-to-local, align 8
  store i64 %v0_1642, i64* %r13.global-to-local, align 8
  store i64 %v0_1640, i64* %r14.global-to-local, align 8
  ret i64 %v2_16a1

dec_label_pc_16d0:                                ; preds = %dec_label_pc_167a
  %v0_16d0 = load i64, i64* inttoptr (i64 5847 to i64*), align 8
  store i64 %v0_16d0, i64* @rax, align 8
  store i64 %v0_164a, i64* @rbx, align 8
  store i64 %v0_1646, i64* %rbp.global-to-local, align 8
  store i64 %v0_1644, i64* %r12.global-to-local, align 8
  store i64 %v0_1642, i64* %r13.global-to-local, align 8
  store i64 %v0_1640, i64* %r14.global-to-local, align 8
  ret i64 %v0_16d0

dec_label_pc_16e0:                                ; preds = %dec_label_pc_1640
  store i64 1, i64* @rax, align 8
  store i64 %v2_164b, i64* @rdi, align 8
  store i64 3, i64* %r14.global-to-local, align 8
  store i64 2, i64* %rsi.global-to-local, align 8
  %.pre = add i64 %v0_1647, 24
  %.pre4 = inttoptr i64 %.pre to i64*
  br label %dec_label_pc_167a
}

define i64 @_ZN3org4luaj3vm23lib11LibFunction4bindEJvPNS1_8LuaValueEPN4java4lang5ClassEP6JArrayIPNS7_6StringEE(i64 %arg1, i64 %arg2, i64 %arg3, i64 %arg4, i64 %arg5) local_unnamed_addr {
dec_label_pc_1710:
  store i64 %arg4, i64* @rcx, align 8
  store i64 %arg3, i64* @rdx, align 8
  store i64 %arg1, i64* @rdi, align 8
  %v2_1714 = load i64, i64* @rdi, align 8
  store i64 %v2_1714, i64* @rax, align 8
  ret i64 %v2_1714
}

define i64 @_ZN3org4luaj3vm23lib11LibFunction4callEJPNS1_8LuaValueES5_(i64 %arg1) local_unnamed_addr {
dec_label_pc_1730:
  store i64 %arg1, i64* @rdi, align 8
  %v2_1734 = load i64, i64* @rdi, align 8
  store i64 %v2_1734, i64* @rax, align 8
  ret i64 %v2_1734
}

define i64 @_ZN3org4luaj3vm23lib11LibFunction4callEJPNS1_8LuaValueES5_S5_(i64 %arg1) local_unnamed_addr {
dec_label_pc_1750:
  store i64 %arg1, i64* @rdi, align 8
  %v2_1754 = load i64, i64* @rdi, align 8
  store i64 %v2_1754, i64* @rax, align 8
  ret i64 %v2_1754
}

define i64 @_ZN3org4luaj3vm23lib11LibFunction4callEJPNS1_8LuaValueES5_S5_S5_(i64 %arg1) local_unnamed_addr {
dec_label_pc_1770:
  store i64 %arg1, i64* @rdi, align 8
  %v2_1774 = load i64, i64* @rdi, align 8
  store i64 %v2_1774, i64* @rax, align 8
  ret i64 %v2_1774
}

define i64 @_ZN3org4luaj3vm23lib11LibFunction4callEJPNS1_8LuaValueES5_S5_S5_S5_(i64 %arg1) local_unnamed_addr {
dec_label_pc_1790:
  store i64 %arg1, i64* @rdi, align 8
  %v2_1794 = load i64, i64* @rdi, align 8
  store i64 %v2_1794, i64* @rax, align 8
  ret i64 %v2_1794
}

define i64 @_ZN3org4luaj3vm23lib11LibFunction6invokeEJPNS1_7VarargsES5_(i64 %arg1, i64 %arg2) local_unnamed_addr {
dec_label_pc_17b0:
  %rbp.global-to-local = alloca i64, align 8
  %rsi.global-to-local = alloca i64, align 8
  store i64 %arg2, i64* %rsi.global-to-local, align 8
  store i64 %arg1, i64* @rdi, align 8
  %v0_17b6 = load i64, i64* %rbp.global-to-local, align 8
  %v0_17b7 = load i64, i64* @rdi, align 8
  store i64 %v0_17b7, i64* %rbp.global-to-local, align 8
  %v0_17ba = load i64, i64* @rbx, align 8
  %v2_17bb = load i64, i64* %rsi.global-to-local, align 8
  store i64 %v2_17bb, i64* @rax, align 8
  store i64 %v2_17bb, i64* @rbx, align 8
  store i64 %v2_17bb, i64* @rdi, align 8
  %v1_17c7 = trunc i64 %v2_17bb to i32
  %v6_17c7 = icmp eq i32 %v1_17c7, 0
  %v11_17c7 = icmp eq i32 %v1_17c7, 1
  br i1 %v11_17c7, label %dec_label_pc_18f0, label %dec_label_pc_17d0

dec_label_pc_17d0:                                ; preds = %dec_label_pc_17b0
  %v8_17d0 = icmp sgt i32 %v1_17c7, 1
  br i1 %v8_17d0, label %dec_label_pc_17d6, label %dec_label_pc_1870

dec_label_pc_17d6:                                ; preds = %dec_label_pc_17d0
  %v11_17d6 = icmp eq i32 %v1_17c7, 2
  br i1 %v11_17d6, label %dec_label_pc_1830, label %dec_label_pc_17db

dec_label_pc_17db:                                ; preds = %dec_label_pc_17d6
  %v11_17db = icmp eq i32 %v1_17c7, 3
  %v1_17de = icmp eq i1 %v11_17db, false
  br i1 %v1_17de, label %dec_label_pc_1890, label %dec_label_pc_17e4

dec_label_pc_17e4:                                ; preds = %dec_label_pc_17db
  store i64 2, i64* @rax, align 8
  store i64 2, i64* @rcx, align 8
  store i64 %v2_17bb, i64* @rdx, align 8
  store i64 %v0_17b7, i64* @rdi, align 8
  store i64 %v0_17ba, i64* @rbx, align 8
  store i64 %v0_17b6, i64* %rbp.global-to-local, align 8
  ret i64 2

dec_label_pc_1830:                                ; preds = %dec_label_pc_17d6
  store i64 %v2_17bb, i64* @rax, align 8
  store i64 %v2_17bb, i64* @rcx, align 8
  store i64 %v2_17bb, i64* @rdx, align 8
  store i64 %v0_17b7, i64* @rdi, align 8
  store i64 %v0_17ba, i64* @rbx, align 8
  store i64 %v0_17b6, i64* %rbp.global-to-local, align 8
  ret i64 %v2_17bb

dec_label_pc_1870:                                ; preds = %dec_label_pc_17d0
  %v1_1872 = icmp eq i1 %v6_17c7, false
  br i1 %v1_1872, label %dec_label_pc_1890, label %dec_label_pc_1874

dec_label_pc_1874:                                ; preds = %dec_label_pc_1870
  store i64 %v2_17bb, i64* @rax, align 8
  store i64 %v0_17b7, i64* @rdi, align 8
  store i64 %v0_17ba, i64* @rbx, align 8
  store i64 %v0_17b6, i64* %rbp.global-to-local, align 8
  ret i64 %v2_17bb

dec_label_pc_1890:                                ; preds = %dec_label_pc_1870, %dec_label_pc_17db
  store i64 3, i64* @rax, align 8
  store i64 2, i64* @rcx, align 8
  store i64 %v2_17bb, i64* @rdx, align 8
  store i64 %v0_17b7, i64* @rdi, align 8
  store i64 %v0_17ba, i64* @rbx, align 8
  store i64 %v0_17b6, i64* %rbp.global-to-local, align 8
  ret i64 3

dec_label_pc_18f0:                                ; preds = %dec_label_pc_17b0
  store i64 %v2_17bb, i64* @rax, align 8
  store i64 %v2_17bb, i64* @rdx, align 8
  store i64 %v0_17b7, i64* @rdi, align 8
  store i64 %v0_17ba, i64* @rbx, align 8
  store i64 %v0_17b6, i64* %rbp.global-to-local, align 8
  ret i64 %v2_17bb
}

define i64 @_ZN3org4luaj3vm23lib15ZeroArgFunction4callEJPNS1_8LuaValueES5_(i64 %arg1) local_unnamed_addr {
dec_label_pc_1920:
  store i64 %arg1, i64* @rdi, align 8
  %v2_1924 = load i64, i64* @rdi, align 8
  store i64 %v2_1924, i64* @rax, align 8
  ret i64 %v2_1924
}

define i64 @_ZN3org4luaj3vm23lib15ZeroArgFunction4callEJPNS1_8LuaValueES5_S5_(i64 %arg1) local_unnamed_addr {
dec_label_pc_1940:
  store i64 %arg1, i64* @rdi, align 8
  %v2_1944 = load i64, i64* @rdi, align 8
  store i64 %v2_1944, i64* @rax, align 8
  ret i64 %v2_1944
}

define i64 @_ZN3org4luaj3vm23lib15ZeroArgFunction4callEJPNS1_8LuaValueES5_S5_S5_(i64 %arg1) local_unnamed_addr {
dec_label_pc_1960:
  store i64 %arg1, i64* @rdi, align 8
  %v2_1964 = load i64, i64* @rdi, align 8
  store i64 %v2_1964, i64* @rax, align 8
  ret i64 %v2_1964
}

define i64 @_ZN3org4luaj3vm23lib15ZeroArgFunction6invokeEJPNS1_7VarargsES5_(i64 %arg1) local_unnamed_addr {
dec_label_pc_1980:
  store i64 %arg1, i64* @rdi, align 8
  %v2_1984 = load i64, i64* @rdi, align 8
  store i64 %v2_1984, i64* @rax, align 8
  ret i64 %v2_1984
}

define i64 @"_ZN3org4luaj3vm23lib20StringLib$MatchState5resetEJvv"(i64 %arg1) local_unnamed_addr {
dec_label_pc_19a0:
  store i64 %arg1, i64* @rdi, align 8
  %v1_19a0 = add i64 %arg1, 32
  %v2_19a0 = inttoptr i64 %v1_19a0 to i32*
  store i32 0, i32* %v2_19a0, align 4
  %v0_19a7 = load i64, i64* @rax, align 8
  ret i64 %v0_19a7
}

define i64 @"_ZN3org4luaj3vm23lib20StringLib$MatchState10max_expandEJiiii"(i64 %arg1, i64 %arg2, i64 %arg3, i64 %arg4) local_unnamed_addr {
dec_label_pc_19b0:
  %r12.global-to-local = alloca i64, align 8
  %r13.global-to-local = alloca i64, align 8
  %r14.global-to-local = alloca i64, align 8
  %r15.global-to-local = alloca i64, align 8
  %rbp.global-to-local = alloca i64, align 8
  %rsi.global-to-local = alloca i64, align 8
  store i64 %arg4, i64* @rcx, align 8
  store i64 %arg3, i64* @rdx, align 8
  store i64 %arg2, i64* %rsi.global-to-local, align 8
  store i64 %arg1, i64* @rdi, align 8
  %v0_19b0 = load i64, i64* %r15.global-to-local, align 8
  %v0_19b2 = load i64, i64* %r14.global-to-local, align 8
  %v0_19b4 = load i64, i64* @rcx, align 8
  store i64 %v0_19b4, i64* %r14.global-to-local, align 8
  %v0_19b7 = load i64, i64* %r13.global-to-local, align 8
  %v0_19b9 = load i64, i64* %r12.global-to-local, align 8
  %v0_19bb = load i64, i64* %rsi.global-to-local, align 8
  store i64 %v0_19bb, i64* %r13.global-to-local, align 8
  %v0_19be = load i64, i64* %rbp.global-to-local, align 8
  %v0_19bf = load i64, i64* @rbx, align 8
  store i64 0, i64* %r12.global-to-local, align 8
  %v0_19c3 = load i64, i64* @rdi, align 8
  store i64 %v0_19c3, i64* @rbx, align 8
  %v1_19fb = add i64 %v0_19c3, 8
  %v2_19fb = inttoptr i64 %v1_19fb to i64*
  br label %dec_label_pc_19fb

dec_label_pc_19d0:                                ; preds = %dec_label_pc_19fb
  %v3_19d0 = load i64, i64* %v2_19fb, align 8
  store i64 %v3_19d0, i64* @rdi, align 8
  store i64 %v3_19ff, i64* %rsi.global-to-local, align 8
  %v2_19d7 = add nuw nsw i64 %v0_1a18, 1
  %v17_19d7 = and i64 %v2_19d7, 4294967295
  store i64 %v17_19d7, i64* %r12.global-to-local, align 8
  %v1_19db = inttoptr i64 %v3_19d0 to i64*
  %v2_19db = load i64, i64* %v1_19db, align 8
  store i64 %v2_19db, i64* @rax, align 8
  store i64 %v2_19db, i64* %rsi.global-to-local, align 8
  store i64 %v0_19c3, i64* @rdi, align 8
  %v4_19f7 = trunc i64 %v2_19db to i8
  %v5_19f7 = icmp eq i8 %v4_19f7, 0
  br i1 %v5_19f7, label %dec_label_pc_1a14, label %dec_label_pc_19fb

dec_label_pc_19fb:                                ; preds = %dec_label_pc_19d0, %dec_label_pc_19b0
  %v0_1a18 = phi i64 [ %v17_19d7, %dec_label_pc_19d0 ], [ 0, %dec_label_pc_19b0 ]
  %v3_19fb = load i64, i64* %v2_19fb, align 8
  store i64 %v3_19fb, i64* @rdi, align 8
  %v3_19ff = add i64 %v0_1a18, %v0_19bb
  store i64 %v3_19ff, i64* %r15.global-to-local, align 8
  store i64 %v0_1a18, i64* %rbp.global-to-local, align 8
  %v1_1a06 = inttoptr i64 %v3_19fb to i64*
  %v2_1a06 = load i64, i64* %v1_1a06, align 8
  store i64 %v2_1a06, i64* @rax, align 8
  %v8_1a12 = icmp sgt i64 %v2_1a06, %v3_19ff
  br i1 %v8_1a12, label %dec_label_pc_19d0, label %dec_label_pc_1a14

dec_label_pc_1a14:                                ; preds = %dec_label_pc_19d0, %dec_label_pc_19fb
  %rdi.promoted = phi i64 [ %v0_19c3, %dec_label_pc_19d0 ], [ %v3_19fb, %dec_label_pc_19fb ]
  %v4_1a14 = trunc i64 %v0_1a18 to i32
  %v6_1a14 = icmp slt i32 %v4_1a14, 0
  br i1 %v6_1a14, label %dec_label_pc_1a58, label %dec_label_pc_1a18

dec_label_pc_1a18:                                ; preds = %dec_label_pc_1a14
  %v3_1a18 = trunc i64 %v0_19bb to i32
  %v20_1a18 = and i64 %v3_19ff, 4294967295
  store i64 %v20_1a18, i64* %rbp.global-to-local, align 8
  %v2_1a1b = add i64 %v0_19b4, 1
  %v17_1a1b = and i64 %v2_1a1b, 4294967295
  store i64 %v17_1a1b, i64* %r14.global-to-local, align 8
  %v2_1a1f = add i32 %v3_1a18, -1
  %v17_1a1f = zext i32 %v2_1a1f to i64
  store i64 %v17_1a1f, i64* %r13.global-to-local, align 8
  br label %dec_label_pc_1a30

dec_label_pc_1a28:                                ; preds = %dec_label_pc_1a30
  %v1_1a28 = trunc i64 %v0_1a28 to i32
  %v2_1a28 = add i32 %v1_1a28, -1
  %v17_1a28 = zext i32 %v2_1a28 to i64
  store i64 %v17_1a28, i64* %rbp.global-to-local, align 8
  %v14_1a2b = icmp eq i32 %v2_1a28, %v2_1a1f
  br i1 %v14_1a2b, label %dec_label_pc_1a58.loopexit, label %dec_label_pc_1a30

dec_label_pc_1a30:                                ; preds = %dec_label_pc_1a28, %dec_label_pc_1a18
  %v0_1a28 = phi i64 [ %v17_1a28, %dec_label_pc_1a28 ], [ %v20_1a18, %dec_label_pc_1a18 ]
  %v2_1a306 = phi i64 [ %v0_19c3, %dec_label_pc_1a28 ], [ %rdi.promoted, %dec_label_pc_1a18 ]
  %v1_1a3e = trunc i64 %v2_1a306 to i32
  %v11_1a3e = icmp eq i32 %v1_1a3e, -1
  br i1 %v11_1a3e, label %dec_label_pc_1a28, label %dec_label_pc_1a43

dec_label_pc_1a43:                                ; preds = %dec_label_pc_1a30
  store i64 %v0_19c3, i64* @rdi, align 8
  store i64 %v2_1a306, i64* @rax, align 8
  store i64 %v17_1a1b, i64* @rdx, align 8
  store i64 %v0_1a28, i64* %rsi.global-to-local, align 8
  store i64 %v0_19bf, i64* @rbx, align 8
  store i64 %v0_19be, i64* %rbp.global-to-local, align 8
  store i64 %v0_19b9, i64* %r12.global-to-local, align 8
  store i64 %v0_19b7, i64* %r13.global-to-local, align 8
  store i64 %v0_19b2, i64* %r14.global-to-local, align 8
  store i64 %v0_19b0, i64* %r15.global-to-local, align 8
  ret i64 %v2_1a306

dec_label_pc_1a58.loopexit:                       ; preds = %dec_label_pc_1a28
  store i64 %v0_19c3, i64* @rdi, align 8
  store i64 %v2_1a306, i64* @rax, align 8
  store i64 %v17_1a1b, i64* @rdx, align 8
  store i64 %v0_1a28, i64* %rsi.global-to-local, align 8
  br label %dec_label_pc_1a58

dec_label_pc_1a58:                                ; preds = %dec_label_pc_1a58.loopexit, %dec_label_pc_1a14
  store i64 4294967295, i64* @rax, align 8
  store i64 %v0_19bf, i64* @rbx, align 8
  store i64 %v0_19be, i64* %rbp.global-to-local, align 8
  store i64 %v0_19b9, i64* %r12.global-to-local, align 8
  store i64 %v0_19b7, i64* %r13.global-to-local, align 8
  store i64 %v0_19b2, i64* %r14.global-to-local, align 8
  store i64 %v0_19b0, i64* %r15.global-to-local, align 8
  ret i64 4294967295
}

define i64 @"_ZN3org4luaj3vm23lib20StringLib$MatchState10min_expandEJiiii"(i64 %arg1, i64 %arg2, i64 %arg3, i64 %arg4) local_unnamed_addr {
dec_label_pc_1a70:
  %r12.global-to-local = alloca i64, align 8
  %r13.global-to-local = alloca i64, align 8
  %r14.global-to-local = alloca i64, align 8
  %r15.global-to-local = alloca i64, align 8
  %rbp.global-to-local = alloca i64, align 8
  %rsi.global-to-local = alloca i64, align 8
  store i64 %arg4, i64* @rcx, align 8
  store i64 %arg3, i64* @rdx, align 8
  store i64 %arg2, i64* %rsi.global-to-local, align 8
  store i64 %arg1, i64* @rdi, align 8
  %v0_1a70 = load i64, i64* %r15.global-to-local, align 8
  %v0_1a72 = load i64, i64* %r14.global-to-local, align 8
  %v0_1a74 = load i64, i64* @rdx, align 8
  store i64 %v0_1a74, i64* %r15.global-to-local, align 8
  %v0_1a77 = load i64, i64* %r13.global-to-local, align 8
  %v0_1a79 = load i64, i64* %r12.global-to-local, align 8
  %v0_1a7b = load i64, i64* @rcx, align 8
  store i64 %v0_1a7b, i64* %r13.global-to-local, align 8
  %v0_1a7e = load i64, i64* %rbp.global-to-local, align 8
  %v0_1a7f = load i64, i64* @rbx, align 8
  %v0_1a80 = load i64, i64* %rsi.global-to-local, align 8
  store i64 %v0_1a80, i64* %rbp.global-to-local, align 8
  %v0_1a82 = load i64, i64* @rdi, align 8
  store i64 %v0_1a82, i64* @rbx, align 8
  %v1_1a85 = add i64 %v0_1a7b, 1
  store i64 %v1_1a85, i64* %r14.global-to-local, align 8
  %v1_1a90 = add i64 %v0_1a82, 8
  %v2_1a90 = inttoptr i64 %v1_1a90 to i64*
  store i64 %v0_1a82, i64* @rax, align 8
  store i64 %v1_1a85, i64* @rdx, align 8
  %v1_1ad7 = trunc i64 %v0_1a82 to i32
  %v11_1ad7 = icmp eq i32 %v1_1ad7, -1
  store i64 %v0_1a82, i64* %r12.global-to-local, align 8
  br i1 %v11_1ad7, label %dec_label_pc_1a90, label %dec_label_pc_1adf

dec_label_pc_1a90:                                ; preds = %dec_label_pc_1a70, %dec_label_pc_1ac6
  %v0_1ac6258 = phi i64 [ %v17_1ac6, %dec_label_pc_1ac6 ], [ %v0_1a80, %dec_label_pc_1a70 ]
  %v3_1a90 = load i64, i64* %v2_1a90, align 8
  store i64 %v3_1a90, i64* @rdi, align 8
  %v1_1a94 = inttoptr i64 %v3_1a90 to i64*
  %v2_1a94 = load i64, i64* %v1_1a94, align 8
  store i64 %v2_1a94, i64* @rax, align 8
  %v5_1a9f = icmp slt i64 %v0_1ac6258, %v2_1a94
  br i1 %v5_1a9f, label %dec_label_pc_1aa1, label %dec_label_pc_1adf

dec_label_pc_1aa1:                                ; preds = %dec_label_pc_1a90
  %v3_1aa1 = load i64, i64* %v2_1a90, align 8
  store i64 %v3_1aa1, i64* @rdi, align 8
  store i64 %v0_1ac6258, i64* %rsi.global-to-local, align 8
  %v1_1aa7 = inttoptr i64 %v3_1aa1 to i64*
  %v2_1aa7 = load i64, i64* %v1_1aa7, align 8
  store i64 %v2_1aa7, i64* @rax, align 8
  store i64 %v0_1a74, i64* @rdx, align 8
  store i64 %v2_1aa7, i64* %rsi.global-to-local, align 8
  store i64 %v0_1a82, i64* @rdi, align 8
  %v4_1ac2 = trunc i64 %v2_1aa7 to i8
  %v5_1ac2 = icmp eq i8 %v4_1ac2, 0
  br i1 %v5_1ac2, label %dec_label_pc_1adf, label %dec_label_pc_1ac6

dec_label_pc_1ac6:                                ; preds = %dec_label_pc_1aa1
  %v2_1ac6 = add i64 %v0_1ac6258, 1
  %v17_1ac6 = and i64 %v2_1ac6, 4294967295
  store i64 %v17_1ac6, i64* %rbp.global-to-local, align 8
  store i64 %v0_1a82, i64* @rax, align 8
  store i64 %v1_1a85, i64* @rdx, align 8
  store i64 %v17_1ac6, i64* %rsi.global-to-local, align 8
  store i64 %v0_1a82, i64* @rdi, align 8
  store i64 %v0_1a82, i64* %r12.global-to-local, align 8
  br label %dec_label_pc_1a90

dec_label_pc_1adf:                                ; preds = %dec_label_pc_1aa1, %dec_label_pc_1a90, %dec_label_pc_1a70
  store i64 %v0_1a82, i64* @rax, align 8
  store i64 %v0_1a7f, i64* @rbx, align 8
  store i64 %v0_1a7e, i64* %rbp.global-to-local, align 8
  store i64 %v0_1a79, i64* %r12.global-to-local, align 8
  store i64 %v0_1a77, i64* %r13.global-to-local, align 8
  store i64 %v0_1a72, i64* %r14.global-to-local, align 8
  store i64 %v0_1a70, i64* %r15.global-to-local, align 8
  ret i64 %v0_1a82
}

define i64 @"_ZN3org4luaj3vm23lib13StringLib$len4callEJPNS1_8LuaValueES5_"(i64 %arg1, i64 %arg2) local_unnamed_addr {
dec_label_pc_1b00:
  store i64 %arg1, i64* @rdi, align 8
  store i64 %arg2, i64* @rax, align 8
  store i64 %arg2, i64* @rdx, align 8
  store i64 %arg2, i64* @rdi, align 8
  ret i64 %arg2
}

define i64 @"_ZN3org4luaj3vm23lib19StringLib$GMatchAux6invokeEJPNS1_7VarargsES5_"(i64 %arg1) local_unnamed_addr {
dec_label_pc_1b30:
  store i64 %arg1, i64* @rdi, align 8
  %stack_var_-8 = alloca i64, align 8
  %v0_1b30 = load i64, i64* @rdi, align 8
  %v1_1b30 = add i64 %v0_1b30, 40
  %v2_1b30 = inttoptr i64 %v1_1b30 to i32*
  %v3_1b30 = load i32, i32* %v2_1b30, align 4
  %v4_1b30 = zext i32 %v3_1b30 to i64
  store i64 %v4_1b30, i64* @rax, align 8
  %v1_1b33 = add i64 %v0_1b30, 24
  %v2_1b33 = inttoptr i64 %v1_1b33 to i32*
  %v3_1b33 = load i32, i32* %v2_1b33, align 4
  %v5_1b36 = sext i32 %v3_1b33 to i64
  %v6_1b36 = icmp slt i64 %v5_1b36, %v4_1b30
  br i1 %v6_1b36, label %dec_label_pc_1b99, label %dec_label_pc_1b38

dec_label_pc_1b38:                                ; preds = %dec_label_pc_1b30
  %v0_1b38 = load i64, i64* @rbx, align 8
  store i64 %v0_1b38, i64* %stack_var_-8, align 8
  store i64 %v0_1b30, i64* @rbx, align 8
  br label %dec_label_pc_1b4e

dec_label_pc_1b40:                                ; preds = %dec_label_pc_1b4e
  %v2_1b43 = add i32 %v3_1b40, 1
  %v17_1b43 = zext i32 %v2_1b43 to i64
  store i64 %v17_1b43, i64* @rax, align 8
  %v1_1b46 = add i64 %v0_1b46, 24
  %v2_1b46 = inttoptr i64 %v1_1b46 to i32*
  %v3_1b46 = load i32, i32* %v2_1b46, align 4
  store i32 %v2_1b43, i32* %v2_1b5e, align 4
  %v5_1b4c = sext i32 %v3_1b46 to i64
  %v6_1b4c = icmp slt i64 %v5_1b4c, %v17_1b43
  br i1 %v6_1b4c, label %dec_label_pc_1b90, label %dec_label_pc_1b40.dec_label_pc_1b4e_crit_edge

dec_label_pc_1b40.dec_label_pc_1b4e_crit_edge:    ; preds = %dec_label_pc_1b40
  %v0_1b4e.pre = load i64, i64* @rbx, align 8
  br label %dec_label_pc_1b4e

dec_label_pc_1b4e:                                ; preds = %dec_label_pc_1b40.dec_label_pc_1b4e_crit_edge, %dec_label_pc_1b38
  %v0_1b46 = phi i64 [ %v0_1b4e.pre, %dec_label_pc_1b40.dec_label_pc_1b4e_crit_edge ], [ %v0_1b30, %dec_label_pc_1b38 ]
  %v1_1b4e = add i64 %v0_1b46, 32
  %v2_1b4e = inttoptr i64 %v1_1b4e to i64*
  %v3_1b4e = load i64, i64* %v2_1b4e, align 8
  store i64 %v3_1b4e, i64* @rdi, align 8
  %v1_1b52 = inttoptr i64 %v3_1b4e to i64*
  %v2_1b52 = load i64, i64* %v1_1b52, align 8
  store i64 %v2_1b52, i64* @rax, align 8
  %v3_1b58 = load i64, i64* %v2_1b4e, align 8
  store i64 %v3_1b58, i64* @rdi, align 8
  store i64 0, i64* @rdx, align 8
  %v1_1b5e = add i64 %v0_1b46, 40
  %v2_1b5e = inttoptr i64 %v1_1b5e to i32*
  %v1_1b61 = inttoptr i64 %v3_1b58 to i64*
  %v2_1b61 = load i64, i64* %v1_1b61, align 8
  store i64 %v2_1b61, i64* @rax, align 8
  %v4_1b67 = trunc i64 %v2_1b61 to i32
  %v6_1b67 = icmp slt i32 %v4_1b67, 0
  %v3_1b40 = load i32, i32* %v2_1b5e, align 4
  br i1 %v6_1b67, label %dec_label_pc_1b40, label %dec_label_pc_1b6b

dec_label_pc_1b6b:                                ; preds = %dec_label_pc_1b4e
  %v4_1b40 = zext i32 %v3_1b40 to i64
  store i64 %v4_1b40, i64* @rdx, align 8
  %v3_1b6e = load i64, i64* %v2_1b4e, align 8
  store i64 %v3_1b6e, i64* @rdi, align 8
  %v1_1b72 = add i64 %v2_1b61, 1
  store i64 %v1_1b72, i64* @rcx, align 8
  %v14_1b7a = icmp eq i32 %v4_1b67, %v3_1b40
  %v1_1b7f = icmp eq i1 %v14_1b7a, false
  %v6_1b7f.v = select i1 %v1_1b7f, i64 %v2_1b61, i64 %v1_1b72
  %v1_1b82 = trunc i64 %v6_1b7f.v to i32
  store i32 %v1_1b82, i32* %v2_1b5e, align 4
  %v0_1b85 = load i64, i64* @rax, align 8
  store i64 %v0_1b85, i64* @rcx, align 8
  %v2_1b8b = load i64, i64* %stack_var_-8, align 8
  store i64 %v2_1b8b, i64* @rbx, align 8
  ret i64 %v0_1b85

dec_label_pc_1b90:                                ; preds = %dec_label_pc_1b40
  %v0_1b90 = load i64, i64* inttoptr (i64 7063 to i64*), align 8
  store i64 %v0_1b90, i64* @rax, align 8
  %v2_1b97 = load i64, i64* %stack_var_-8, align 8
  store i64 %v2_1b97, i64* @rbx, align 8
  ret i64 %v0_1b90

dec_label_pc_1b99:                                ; preds = %dec_label_pc_1b30
  ret i64 %v4_1b30
}

define i64 @function_1ba0() local_unnamed_addr {
dec_label_pc_1ba0:
  %v0_1ba0 = load i64, i64* @rax, align 8
  ret i64 %v0_1ba0
}

define i64 @"_ZN3org4luaj3vm23lib12BaseLib$next6invokeEJPNS1_7VarargsES5_"(i64 %arg1, i64 %arg2) local_unnamed_addr {
dec_label_pc_1bb0:
  store i64 %arg1, i64* @rdi, align 8
  store i64 1, i64* @rax, align 8
  store i64 2, i64* @rdx, align 8
  store i64 %arg2, i64* @rdi, align 8
  ret i64 1
}

define i64 @"_ZN3org4luaj3vm23lib16BaseLib$loadfile6invokeEJPNS1_7VarargsES5_"(i64 %arg1, i64 %arg2) local_unnamed_addr {
dec_label_pc_1c00:
  %r12.global-to-local = alloca i64, align 8
  %r13.global-to-local = alloca i64, align 8
  %rbp.global-to-local = alloca i64, align 8
  %rsi.global-to-local = alloca i64, align 8
  store i64 %arg2, i64* %rsi.global-to-local, align 8
  store i64 %arg1, i64* @rdi, align 8
  %v0_1c00 = load i64, i64* %r13.global-to-local, align 8
  %v0_1c02 = load i64, i64* %r12.global-to-local, align 8
  %v0_1c04 = load i64, i64* %rbp.global-to-local, align 8
  %v0_1c05 = load i64, i64* @rbx, align 8
  %v0_1c06 = load i64, i64* %rsi.global-to-local, align 8
  store i64 %v0_1c06, i64* @rbx, align 8
  %v0_1c09 = load i64, i64* @rdi, align 8
  store i64 %v0_1c09, i64* %rbp.global-to-local, align 8
  store i64 %v0_1c06, i64* @rdi, align 8
  store i64 %v0_1c06, i64* @rax, align 8
  %v4_1c21 = trunc i64 %v0_1c06 to i8
  %v5_1c21 = icmp eq i8 %v4_1c21, 0
  store i64 1, i64* %rsi.global-to-local, align 8
  br i1 %v5_1c21, label %dec_label_pc_1cc0, label %dec_label_pc_1d26

dec_label_pc_1cc0:                                ; preds = %dec_label_pc_1c00
  store i64 1, i64* @rax, align 8
  store i64 %v0_1c06, i64* @rdi, align 8
  store i64 1, i64* %rsi.global-to-local, align 8
  br label %dec_label_pc_1d26

dec_label_pc_1d26:                                ; preds = %dec_label_pc_1cc0, %dec_label_pc_1c00
  store i64 1, i64* @rax, align 8
  %v0_1c31 = load i64, i64* inttoptr (i64 7224 to i64*), align 8
  store i64 %v0_1c31, i64* @rcx, align 8
  store i64 1, i64* @rdx, align 8
  store i64 1, i64* %rsi.global-to-local, align 8
  store i64 %v0_1c06, i64* @rdi, align 8
  store i64 1, i64* %r13.global-to-local, align 8
  store i64 1, i64* @rax, align 8
  %v0_1cec = load i64, i64* inttoptr (i64 7411 to i64*), align 8
  store i64 %v0_1cec, i64* @rdx, align 8
  store i64 2, i64* %rsi.global-to-local, align 8
  store i64 %v0_1c06, i64* @rdi, align 8
  store i64 1, i64* %r12.global-to-local, align 8
  %v1_1d04 = add i64 %v0_1c09, 24
  %v2_1d04 = inttoptr i64 %v1_1d04 to i64*
  %v3_1d04 = load i64, i64* %v2_1d04, align 8
  store i64 %v3_1d04, i64* @rax, align 8
  store i64 3, i64* %rsi.global-to-local, align 8
  store i64 %v0_1c06, i64* @rdi, align 8
  %v1_1d10 = add i64 %v3_1d04, 24
  %v2_1d10 = inttoptr i64 %v1_1d10 to i64*
  %v3_1d10 = load i64, i64* %v2_1d10, align 8
  store i64 %v3_1d10, i64* @rdx, align 8
  store i64 3, i64* @rax, align 8
  %v3_1d26 = load i64, i64* %v2_1d04, align 8
  store i64 %v3_1d26, i64* @rdi, align 8
  store i64 3, i64* @rcx, align 8
  store i64 1, i64* @rdx, align 8
  store i64 1, i64* %rsi.global-to-local, align 8
  store i64 %v0_1c05, i64* @rbx, align 8
  store i64 %v0_1c04, i64* %rbp.global-to-local, align 8
  store i64 %v0_1c02, i64* %r12.global-to-local, align 8
  store i64 %v0_1c00, i64* %r13.global-to-local, align 8
  ret i64 3
}

define i64 @"_ZN3org4luaj3vm23lib14BaseLib$rawget4callEJPNS1_8LuaValueES5_S5_"(i64 %arg1, i64 %arg2, i64 %arg3) local_unnamed_addr {
dec_label_pc_1d50:
  store i64 %arg3, i64* @rdx, align 8
  store i64 %arg1, i64* @rdi, align 8
  store i64 %arg2, i64* @rax, align 8
  store i64 %arg2, i64* @rcx, align 8
  store i64 %arg2, i64* @rdi, align 8
  ret i64 %arg2
}

define i64 @"_ZN3org4luaj3vm23lib20BaseLib$getmetatable4callEJPNS1_8LuaValueES5_"(i64 %arg1, i64 %arg2) local_unnamed_addr {
dec_label_pc_1d80:
  store i64 %arg1, i64* @rdi, align 8
  %v0_1d80 = load i64, i64* @rbx, align 8
  store i64 %arg2, i64* @rax, align 8
  store i64 %arg2, i64* @rdi, align 8
  %v1_1d8d = icmp eq i64 %arg2, 0
  br i1 %v1_1d8d, label %dec_label_pc_1dc0, label %dec_label_pc_1d92

dec_label_pc_1d92:                                ; preds = %dec_label_pc_1d80
  store i64 %arg2, i64* @rbx, align 8
  store i64 %arg2, i64* @rax, align 8
  %v0_1d98 = load i64, i64* inttoptr (i64 7583 to i64*), align 8
  store i64 %v0_1d98, i64* @rdx, align 8
  store i64 %arg2, i64* @rdi, align 8
  store i64 %v0_1d80, i64* @rbx, align 8
  ret i64 %arg2

dec_label_pc_1dc0:                                ; preds = %dec_label_pc_1d80
  %v0_1dc0 = load i64, i64* inttoptr (i64 7623 to i64*), align 8
  store i64 %v0_1dc0, i64* @rax, align 8
  ret i64 %v0_1dc0
}

define i64 @"_ZN3org4luaj3vm23lib13BaseLib$inext6invokeEJPNS1_7VarargsES5_"(i64 %arg1, i64 %arg2) local_unnamed_addr {
dec_label_pc_1dd0:
  store i64 %arg1, i64* @rdi, align 8
  store i64 1, i64* @rax, align 8
  store i64 2, i64* @rdx, align 8
  store i64 %arg2, i64* @rdi, align 8
  ret i64 1
}

define i64 @"_ZN3org4luaj3vm23lib16BaseLib$tonumber4callEJPNS1_8LuaValueES5_"(i64 %arg1, i64 %arg2) local_unnamed_addr {
dec_label_pc_1e20:
  store i64 %arg1, i64* @rdi, align 8
  store i64 %arg2, i64* @rax, align 8
  store i64 %arg2, i64* @rdi, align 8
  ret i64 %arg2
}

define i64 @"_ZN3org4luaj3vm23lib13BaseLib$print6invokeEJPNS1_7VarargsES5_"(i64 %arg1, i64 %arg2) local_unnamed_addr {
dec_label_pc_1e40:
  %r12.global-to-local = alloca i64, align 8
  %r13.global-to-local = alloca i64, align 8
  %r14.global-to-local = alloca i64, align 8
  %r15.global-to-local = alloca i64, align 8
  %rbp.global-to-local = alloca i64, align 8
  %rsi.global-to-local = alloca i64, align 8
  store i64 %arg2, i64* %rsi.global-to-local, align 8
  store i64 %arg1, i64* @rdi, align 8
  %v0_1e40 = load i64, i64* %r15.global-to-local, align 8
  %v0_1e42 = load i64, i64* %r14.global-to-local, align 8
  %v0_1e44 = load i64, i64* %r13.global-to-local, align 8
  %v0_1e46 = load i64, i64* %r12.global-to-local, align 8
  %v0_1e48 = load i64, i64* @rdi, align 8
  store i64 %v0_1e48, i64* %r13.global-to-local, align 8
  %v0_1e4b = load i64, i64* %rbp.global-to-local, align 8
  %v0_1e4c = load i64, i64* @rbx, align 8
  %v0_1e4d = load i64, i64* %rsi.global-to-local, align 8
  store i64 %v0_1e4d, i64* %r12.global-to-local, align 8
  %v1_1e54 = add i64 %v0_1e48, 32
  %v2_1e54 = inttoptr i64 %v1_1e54 to i64*
  %v3_1e54 = load i64, i64* %v2_1e54, align 8
  store i64 %v3_1e54, i64* @rax, align 8
  %v0_1e58 = load i64, i64* inttoptr (i64 7775 to i64*), align 8
  store i64 %v0_1e58, i64* %rsi.global-to-local, align 8
  %v1_1e5f = add i64 %v3_1e54, 24
  %v2_1e5f = inttoptr i64 %v1_1e5f to i64*
  %v3_1e5f = load i64, i64* %v2_1e5f, align 8
  store i64 %v3_1e5f, i64* @rdi, align 8
  %v1_1e63 = inttoptr i64 %v3_1e5f to i64*
  %v2_1e63 = load i64, i64* %v1_1e63, align 8
  store i64 %v2_1e63, i64* %r14.global-to-local, align 8
  store i64 %v0_1e58, i64* @rax, align 8
  store i64 %v0_1e4d, i64* @rdi, align 8
  %v4_1e79 = trunc i64 %v0_1e58 to i32
  %tmp257 = icmp slt i32 %v4_1e79, 1
  br i1 %tmp257, label %dec_label_pc_1f06, label %dec_label_pc_1e81

dec_label_pc_1e81:                                ; preds = %dec_label_pc_1e40
  store i64 %v0_1e58, i64* %r15.global-to-local, align 8
  store i64 1, i64* @rbx, align 8
  br label %dec_label_pc_1eaf.outer

dec_label_pc_1e90:                                ; preds = %dec_label_pc_1eaf
  %v3_1f01 = trunc i64 %v2_1eb8 to i32
  %v9_1e93 = icmp sgt i32 %v3_1f01, 1
  br i1 %v9_1e93, label %dec_label_pc_1e95, label %dec_label_pc_1eaf

dec_label_pc_1e95:                                ; preds = %dec_label_pc_1e90
  %v3_1e95 = load i64, i64* %v2_1e54, align 8
  store i64 %v3_1e95, i64* @rax, align 8
  store i64 9, i64* %rsi.global-to-local, align 8
  %v1_1e9e = add i64 %v3_1e95, 24
  %v2_1e9e = inttoptr i64 %v1_1e9e to i64*
  %v3_1e9e = load i64, i64* %v2_1e9e, align 8
  store i64 %v3_1e9e, i64* @rax, align 8
  %v1_1ea2 = add i64 %v3_1e9e, 48
  %v2_1ea2 = inttoptr i64 %v1_1ea2 to i64*
  %v3_1ea2 = load i64, i64* %v2_1ea2, align 8
  store i64 %v3_1ea2, i64* @rdi, align 8
  %v1_1ea6 = inttoptr i64 %v3_1ea2 to i64*
  %v2_1ea6 = load i64, i64* %v1_1ea6, align 8
  store i64 %v2_1ea6, i64* @rax, align 8
  br label %dec_label_pc_1eaf.outer

dec_label_pc_1eaf.outer:                          ; preds = %dec_label_pc_1e95, %dec_label_pc_1e81
  %v0_1eb3.ph = phi i64 [ %v17_1eb8, %dec_label_pc_1e95 ], [ 1, %dec_label_pc_1e81 ]
  %v2_1eaf.ph = phi i64 [ 9, %dec_label_pc_1e95 ], [ %v0_1e58, %dec_label_pc_1e81 ]
  br label %dec_label_pc_1eaf

dec_label_pc_1eaf:                                ; preds = %dec_label_pc_1eaf.outer, %dec_label_pc_1e90
  %v0_1eb3 = phi i64 [ %v17_1eb8, %dec_label_pc_1e90 ], [ %v0_1eb3.ph, %dec_label_pc_1eaf.outer ]
  store i64 %v2_1eaf.ph, i64* @rax, align 8
  %v2_1eb8 = add nuw nsw i64 %v0_1eb3, 1
  %v17_1eb8 = and i64 %v2_1eb8, 4294967295
  store i64 %v17_1eb8, i64* @rbx, align 8
  store i64 %v2_1eaf.ph, i64* %rsi.global-to-local, align 8
  store i64 %v2_1eaf.ph, i64* @rdx, align 8
  store i64 %v2_1eaf.ph, i64* @rdi, align 8
  %v3_1ed9 = load i64, i64* %v2_1e54, align 8
  store i64 %v3_1ed9, i64* @rdx, align 8
  store i64 %v2_1eaf.ph, i64* @rdi, align 8
  %v1_1ee0 = add i64 %v3_1ed9, 24
  %v2_1ee0 = inttoptr i64 %v1_1ee0 to i64*
  %v3_1ee0 = load i64, i64* %v2_1ee0, align 8
  store i64 %v3_1ee0, i64* @rdx, align 8
  %v1_1ee4 = add i64 %v3_1ee0, 48
  %v2_1ee4 = inttoptr i64 %v1_1ee4 to i64*
  %v3_1ee4 = load i64, i64* %v2_1ee4, align 8
  store i64 %v3_1ee4, i64* %rbp.global-to-local, align 8
  store i64 %v2_1eaf.ph, i64* @rdx, align 8
  %v1_1ef1 = inttoptr i64 %v3_1ee4 to i64*
  %v2_1ef1 = load i64, i64* %v1_1ef1, align 8
  store i64 %v2_1ef1, i64* @rdx, align 8
  store i64 %v2_1eaf.ph, i64* %rsi.global-to-local, align 8
  store i64 %v3_1ee4, i64* @rdi, align 8
  %v5_1f04 = icmp slt i64 %v0_1e58, %v17_1eb8
  br i1 %v5_1f04, label %dec_label_pc_1f06.loopexit, label %dec_label_pc_1e90

dec_label_pc_1f06.loopexit:                       ; preds = %dec_label_pc_1eaf
  br label %dec_label_pc_1f06

dec_label_pc_1f06:                                ; preds = %dec_label_pc_1f06.loopexit, %dec_label_pc_1e40
  %v3_1f06 = load i64, i64* %v2_1e54, align 8
  store i64 %v3_1f06, i64* @rax, align 8
  store i64 10, i64* %rsi.global-to-local, align 8
  %v1_1f0f = add i64 %v3_1f06, 24
  %v2_1f0f = inttoptr i64 %v1_1f0f to i64*
  %v3_1f0f = load i64, i64* %v2_1f0f, align 8
  store i64 %v3_1f0f, i64* @rax, align 8
  %v1_1f13 = add i64 %v3_1f0f, 48
  %v2_1f13 = inttoptr i64 %v1_1f13 to i64*
  %v3_1f13 = load i64, i64* %v2_1f13, align 8
  store i64 %v3_1f13, i64* @rdi, align 8
  %v1_1f17 = inttoptr i64 %v3_1f13 to i64*
  %v2_1f17 = load i64, i64* %v1_1f17, align 8
  store i64 %v2_1f17, i64* @rax, align 8
  %v0_1f20 = load i64, i64* inttoptr (i64 7975 to i64*), align 8
  store i64 %v0_1f20, i64* @rax, align 8
  store i64 %v0_1e4c, i64* @rbx, align 8
  store i64 %v0_1e4b, i64* %rbp.global-to-local, align 8
  store i64 %v0_1e46, i64* %r12.global-to-local, align 8
  store i64 %v0_1e44, i64* %r13.global-to-local, align 8
  store i64 %v0_1e42, i64* %r14.global-to-local, align 8
  store i64 %v0_1e40, i64* %r15.global-to-local, align 8
  ret i64 %v0_1f20
}

define i64 @_ZN3org4luaj3vm23lib14TwoArgFunction4callEJPNS1_8LuaValueEv(i64 %arg1) local_unnamed_addr {
dec_label_pc_1f40:
  store i64 %arg1, i64* @rdi, align 8
  %v0_1f44 = load i64, i64* inttoptr (i64 8011 to i64*), align 8
  %v2_1f4b = load i64, i64* @rdi, align 8
  store i64 %v2_1f4b, i64* @rax, align 8
  store i64 %v0_1f44, i64* @rdx, align 8
  ret i64 %v2_1f4b
}

define i64 @_ZN3org4luaj3vm23lib14TwoArgFunction4callEJPNS1_8LuaValueES5_(i64 %arg1) local_unnamed_addr {
dec_label_pc_1f60:
  store i64 %arg1, i64* @rdi, align 8
  %v2_1f64 = load i64, i64* @rdi, align 8
  store i64 %v2_1f64, i64* @rax, align 8
  %v0_1f67 = load i64, i64* inttoptr (i64 8046 to i64*), align 8
  store i64 %v0_1f67, i64* @rdx, align 8
  ret i64 %v2_1f64
}

define i64 @_ZN3org4luaj3vm23lib14TwoArgFunction4callEJPNS1_8LuaValueES5_S5_S5_(i64 %arg1) local_unnamed_addr {
dec_label_pc_1f80:
  store i64 %arg1, i64* @rdi, align 8
  %v2_1f84 = load i64, i64* @rdi, align 8
  store i64 %v2_1f84, i64* @rax, align 8
  ret i64 %v2_1f84
}

define i64 @_ZN3org4luaj3vm23lib14TwoArgFunction6invokeEJPNS1_7VarargsES5_(i64 %arg1, i64 %arg2) local_unnamed_addr {
dec_label_pc_1fa0:
  store i64 %arg1, i64* @rdi, align 8
  store i64 %arg2, i64* @rax, align 8
  store i64 %arg2, i64* @rcx, align 8
  store i64 %arg2, i64* @rdx, align 8
  ret i64 %arg2
}

define i64 @_ZN3org4luaj3vm23lib14OneArgFunction4callEJPNS1_8LuaValueEv(i64 %arg1) local_unnamed_addr {
dec_label_pc_1fe0:
  store i64 %arg1, i64* @rdi, align 8
  %v2_1fe4 = load i64, i64* @rdi, align 8
  store i64 %v2_1fe4, i64* @rax, align 8
  ret i64 %v2_1fe4
}

define i64 @_ZN3org4luaj3vm23lib14OneArgFunction4callEJPNS1_8LuaValueES5_S5_(i64 %arg1) local_unnamed_addr {
dec_label_pc_2000:
  store i64 %arg1, i64* @rdi, align 8
  %v2_2004 = load i64, i64* @rdi, align 8
  store i64 %v2_2004, i64* @rax, align 8
  ret i64 %v2_2004
}

define i64 @_ZN3org4luaj3vm23lib14OneArgFunction4callEJPNS1_8LuaValueES5_S5_S5_(i64 %arg1) local_unnamed_addr {
dec_label_pc_2020:
  store i64 %arg1, i64* @rdi, align 8
  %v2_2024 = load i64, i64* @rdi, align 8
  store i64 %v2_2024, i64* @rax, align 8
  ret i64 %v2_2024
}

define i64 @_ZN3org4luaj3vm23lib14OneArgFunction6invokeEJPNS1_7VarargsES5_(i64 %arg1, i64 %arg2) local_unnamed_addr {
dec_label_pc_2040:
  store i64 %arg1, i64* @rdi, align 8
  store i64 %arg2, i64* @rax, align 8
  store i64 %arg2, i64* @rdx, align 8
  ret i64 %arg2
}

define i64 @_ZN3org4luaj3vm26Buffer8setvalueEJPS2_PNS1_8LuaValueE(i64 %arg1, i64 %arg2) local_unnamed_addr {
dec_label_pc_2060:
  %rsi.global-to-local = alloca i64, align 8
  store i64 %arg2, i64* %rsi.global-to-local, align 8
  store i64 %arg1, i64* @rdi, align 8
  %v0_2060 = load i64, i64* inttoptr (i64 8295 to i64*), align 8
  store i64 %v0_2060, i64* @rdx, align 8
  store i64 %arg1, i64* @rax, align 8
  %v1_206a = add i64 %arg1, 16
  %v2_206a = inttoptr i64 %v1_206a to i32*
  store i32 0, i32* %v2_206a, align 4
  %v0_2071 = load i64, i64* @rdi, align 8
  %v1_2071 = add i64 %v0_2071, 20
  %v2_2071 = inttoptr i64 %v1_2071 to i32*
  store i32 0, i32* %v2_2071, align 4
  %v0_2078 = load i64, i64* %rsi.global-to-local, align 8
  %v1_2078 = load i64, i64* @rdi, align 8
  %v2_2078 = add i64 %v1_2078, 24
  %v3_2078 = inttoptr i64 %v2_2078 to i64*
  store i64 %v0_2078, i64* %v3_2078, align 8
  %v0_207c = load i64, i64* @rdx, align 8
  %v1_207c = load i64, i64* @rdi, align 8
  %v2_207c = add i64 %v1_207c, 8
  %v3_207c = inttoptr i64 %v2_207c to i64*
  store i64 %v0_207c, i64* %v3_207c, align 8
  %v0_2080 = load i64, i64* @rax, align 8
  ret i64 %v0_2080
}

define i64 @_ZN3org4luaj3vm26LuaNil9tojstringEJPN4java4lang6StringEv() local_unnamed_addr {
dec_label_pc_2090:
  %v0_2090 = load i64, i64* inttoptr (i64 8343 to i64*), align 8
  store i64 %v0_2090, i64* @rax, align 8
  ret i64 %v0_2090
}

define i64 @"_ZN3org4luaj3vm26LuaNil4not$EJPNS1_8LuaValueEv"() local_unnamed_addr {
dec_label_pc_20a0:
  %v0_20a0 = load i64, i64* inttoptr (i64 8359 to i64*), align 8
  store i64 %v0_20a0, i64* @rax, align 8
  ret i64 %v0_20a0
}

define i64 @_ZN3org4luaj3vm26LuaNil12getmetatableEJPNS1_8LuaValueEv() local_unnamed_addr {
dec_label_pc_20b0:
  %v0_20b0 = load i64, i64* inttoptr (i64 8375 to i64*), align 8
  store i64 %v0_20b0, i64* @rax, align 8
  ret i64 %v0_20b0
}

define i64 @_ZN3org4luaj3vm26LuaNil11checknotnilEJPNS1_8LuaValueEv(i64 %arg1) local_unnamed_addr {
dec_label_pc_20c0:
  store i64 %arg1, i64* @rdi, align 8
  %v2_20c4 = load i64, i64* @rdi, align 8
  store i64 %v2_20c4, i64* @rax, align 8
  ret i64 %v2_20c4
}

define i64 @_ZN3org4luaj3vm26LuaNil10optbooleanEJbb(i64 %arg1, i64 %arg2) local_unnamed_addr {
dec_label_pc_20e0:
  store i64 %arg1, i64* @rdi, align 8
  store i64 %arg2, i64* @rax, align 8
  ret i64 %arg2
}

define i64 @_ZN3org4luaj3vm26LuaNil10optclosureEJPNS1_10LuaClosureES4_(i64 %arg1, i64 %arg2) local_unnamed_addr {
dec_label_pc_20f0:
  store i64 %arg1, i64* @rdi, align 8
  store i64 %arg2, i64* @rax, align 8
  ret i64 %arg2
}

define i64 @_ZN3org4luaj3vm26LuaNil9optdoubleEJdd() local_unnamed_addr {
dec_label_pc_2100:
  %v0_2100 = load i64, i64* @rax, align 8
  ret i64 %v0_2100
}

define i64 @_ZN3org4luaj3vm26LuaNil11optfunctionEJPNS1_11LuaFunctionES4_(i64 %arg1, i64 %arg2) local_unnamed_addr {
dec_label_pc_2110:
  store i64 %arg1, i64* @rdi, align 8
  store i64 %arg2, i64* @rax, align 8
  ret i64 %arg2
}

define i64 @_ZN3org4luaj3vm26LuaNil6optintEJii(i64 %arg1, i64 %arg2) local_unnamed_addr {
dec_label_pc_2120:
  store i64 %arg1, i64* @rdi, align 8
  store i64 %arg2, i64* @rax, align 8
  ret i64 %arg2
}

define i64 @_ZN3org4luaj3vm26LuaNil10optintegerEJPNS1_10LuaIntegerES4_(i64 %arg1, i64 %arg2) local_unnamed_addr {
dec_label_pc_2130:
  store i64 %arg1, i64* @rdi, align 8
  store i64 %arg2, i64* @rax, align 8
  ret i64 %arg2
}

define i64 @_ZN3org4luaj3vm26LuaNil7optlongEJxx(i64 %arg1, i64 %arg2) local_unnamed_addr {
dec_label_pc_2140:
  store i64 %arg1, i64* @rdi, align 8
  store i64 %arg2, i64* @rax, align 8
  ret i64 %arg2
}

define i64 @_ZN3org4luaj3vm26LuaNil9optnumberEJPNS1_9LuaNumberES4_(i64 %arg1, i64 %arg2) local_unnamed_addr {
dec_label_pc_2150:
  store i64 %arg1, i64* @rdi, align 8
  store i64 %arg2, i64* @rax, align 8
  ret i64 %arg2
}

define i64 @_ZN3org4luaj3vm26LuaNil8opttableEJPNS1_8LuaTableES4_(i64 %arg1, i64 %arg2) local_unnamed_addr {
dec_label_pc_2160:
  store i64 %arg1, i64* @rdi, align 8
  store i64 %arg2, i64* @rax, align 8
  ret i64 %arg2
}

define i64 @_ZN3org4luaj3vm26LuaNil9optthreadEJPNS1_9LuaThreadES4_(i64 %arg1, i64 %arg2) local_unnamed_addr {
dec_label_pc_2170:
  store i64 %arg1, i64* @rdi, align 8
  store i64 %arg2, i64* @rax, align 8
  ret i64 %arg2
}

define i64 @_ZN3org4luaj3vm26LuaNil10optjstringEJPN4java4lang6StringES6_(i64 %arg1, i64 %arg2) local_unnamed_addr {
dec_label_pc_2180:
  store i64 %arg1, i64* @rdi, align 8
  store i64 %arg2, i64* @rax, align 8
  ret i64 %arg2
}

define i64 @_ZN3org4luaj3vm26LuaNil9optstringEJPNS1_9LuaStringES4_(i64 %arg1, i64 %arg2) local_unnamed_addr {
dec_label_pc_2190:
  store i64 %arg1, i64* @rdi, align 8
  store i64 %arg2, i64* @rax, align 8
  ret i64 %arg2
}

define i64 @_ZN3org4luaj3vm26LuaNil11optuserdataEJPN4java4lang6ObjectES6_(i64 %arg1, i64 %arg2) local_unnamed_addr {
dec_label_pc_21a0:
  store i64 %arg1, i64* @rdi, align 8
  store i64 %arg2, i64* @rax, align 8
  ret i64 %arg2
}

define i64 @_ZN3org4luaj3vm26LuaNil11optuserdataEJPN4java4lang6ObjectEPNS4_5ClassES6_(i64 %arg1, i64 %arg2, i64 %arg3) local_unnamed_addr {
dec_label_pc_21b0:
  store i64 %arg3, i64* @rdx, align 8
  store i64 %arg1, i64* @rdi, align 8
  store i64 %arg3, i64* @rax, align 8
  ret i64 %arg3
}

define i64 @_ZN3org4luaj3vm215TailcallVarargs3argEJPNS1_8LuaValueEi(i64 %arg1, i64 %arg2) local_unnamed_addr {
dec_label_pc_21c0:
  store i64 %arg1, i64* @rdi, align 8
  %v0_21c0 = load i64, i64* @rbx, align 8
  %v0_21c1 = load i64, i64* @rdi, align 8
  store i64 %v0_21c1, i64* @rbx, align 8
  %v1_21c8 = add i64 %v0_21c1, 24
  %v2_21c8 = inttoptr i64 %v1_21c8 to i64*
  %v3_21c8 = load i64, i64* %v2_21c8, align 8
  store i64 %v3_21c8, i64* @rdi, align 8
  %v1_21cc = icmp eq i64 %v3_21c8, 0
  br i1 %v1_21cc, label %dec_label_pc_21e0, label %dec_label_pc_21d1

dec_label_pc_21d1:                                ; preds = %dec_label_pc_21c0
  %v1_21d1 = inttoptr i64 %v3_21c8 to i64*
  %v2_21d1 = load i64, i64* %v1_21d1, align 8
  store i64 %v2_21d1, i64* @rax, align 8
  store i64 %v0_21c0, i64* @rbx, align 8
  ret i64 %v2_21d1

dec_label_pc_21e0:                                ; preds = %dec_label_pc_21c0
  store i64 0, i64* @rax, align 8
  store i64 %v0_21c1, i64* @rdi, align 8
  %v3_21ed = load i64, i64* %v2_21c8, align 8
  store i64 %v3_21ed, i64* @rdi, align 8
  %v1_21f5 = inttoptr i64 %v3_21ed to i64*
  %v2_21f5 = load i64, i64* %v1_21f5, align 8
  store i64 %v2_21f5, i64* @rax, align 8
  store i64 %v0_21c0, i64* @rbx, align 8
  ret i64 %v2_21f5
}

define i64 @_ZN3org4luaj3vm215TailcallVarargs4arg1EJPNS1_8LuaValueEv(i64 %arg1) local_unnamed_addr {
dec_label_pc_2210:
  store i64 %arg1, i64* @rdi, align 8
  %v0_2210 = load i64, i64* @rbx, align 8
  %v0_2211 = load i64, i64* @rdi, align 8
  store i64 %v0_2211, i64* @rbx, align 8
  %v1_2214 = add i64 %v0_2211, 24
  %v2_2214 = inttoptr i64 %v1_2214 to i64*
  %v3_2214 = load i64, i64* %v2_2214, align 8
  store i64 %v3_2214, i64* @rdi, align 8
  %v1_2218 = icmp eq i64 %v3_2214, 0
  br i1 %v1_2218, label %dec_label_pc_2228, label %dec_label_pc_221d

dec_label_pc_221d:                                ; preds = %dec_label_pc_2210
  %v1_221d = inttoptr i64 %v3_2214 to i64*
  %v2_221d = load i64, i64* %v1_221d, align 8
  store i64 %v2_221d, i64* @rax, align 8
  store i64 %v0_2210, i64* @rbx, align 8
  ret i64 %v2_221d

dec_label_pc_2228:                                ; preds = %dec_label_pc_2210
  store i64 0, i64* @rax, align 8
  store i64 %v0_2211, i64* @rdi, align 8
  %v3_2231 = load i64, i64* %v2_2214, align 8
  store i64 %v3_2231, i64* @rdi, align 8
  %v1_2235 = inttoptr i64 %v3_2231 to i64*
  %v2_2235 = load i64, i64* %v1_2235, align 8
  store i64 %v2_2235, i64* @rax, align 8
  store i64 %v0_2210, i64* @rbx, align 8
  ret i64 %v2_2235
}

define i64 @_ZN3org4luaj3vm215TailcallVarargs4nargEJiv(i64 %arg1) local_unnamed_addr {
dec_label_pc_2240:
  store i64 %arg1, i64* @rdi, align 8
  %v0_2240 = load i64, i64* @rbx, align 8
  %v0_2241 = load i64, i64* @rdi, align 8
  store i64 %v0_2241, i64* @rbx, align 8
  %v1_2244 = add i64 %v0_2241, 24
  %v2_2244 = inttoptr i64 %v1_2244 to i64*
  %v3_2244 = load i64, i64* %v2_2244, align 8
  store i64 %v3_2244, i64* @rdi, align 8
  %v1_2248 = icmp eq i64 %v3_2244, 0
  br i1 %v1_2248, label %dec_label_pc_2258, label %dec_label_pc_224d

dec_label_pc_224d:                                ; preds = %dec_label_pc_2240
  %v1_224d = inttoptr i64 %v3_2244 to i64*
  %v2_224d = load i64, i64* %v1_224d, align 8
  store i64 %v2_224d, i64* @rax, align 8
  store i64 %v0_2240, i64* @rbx, align 8
  ret i64 %v2_224d

dec_label_pc_2258:                                ; preds = %dec_label_pc_2240
  store i64 0, i64* @rax, align 8
  store i64 %v0_2241, i64* @rdi, align 8
  %v3_2261 = load i64, i64* %v2_2244, align 8
  store i64 %v3_2261, i64* @rdi, align 8
  %v1_2265 = inttoptr i64 %v3_2261 to i64*
  %v2_2265 = load i64, i64* %v1_2265, align 8
  store i64 %v2_2265, i64* @rax, align 8
  store i64 %v0_2240, i64* @rbx, align 8
  ret i64 %v2_2265
}

define i64 @_ZN3org4luaj3vm215TailcallVarargs7subargsEJPNS1_7VarargsEi(i64 %arg1, i64 %arg2) local_unnamed_addr {
dec_label_pc_2270:
  store i64 %arg1, i64* @rdi, align 8
  %v0_2270 = load i64, i64* @rbx, align 8
  %v0_2271 = load i64, i64* @rdi, align 8
  store i64 %v0_2271, i64* @rbx, align 8
  %v1_2278 = add i64 %v0_2271, 24
  %v2_2278 = inttoptr i64 %v1_2278 to i64*
  %v3_2278 = load i64, i64* %v2_2278, align 8
  store i64 %v3_2278, i64* @rdi, align 8
  %v1_227c = icmp eq i64 %v3_2278, 0
  br i1 %v1_227c, label %dec_label_pc_2290, label %dec_label_pc_2281

dec_label_pc_2281:                                ; preds = %dec_label_pc_2270
  %v1_2281 = inttoptr i64 %v3_2278 to i64*
  %v2_2281 = load i64, i64* %v1_2281, align 8
  store i64 %v2_2281, i64* @rax, align 8
  store i64 %v0_2270, i64* @rbx, align 8
  ret i64 %v2_2281

dec_label_pc_2290:                                ; preds = %dec_label_pc_2270
  store i64 0, i64* @rax, align 8
  store i64 %v0_2271, i64* @rdi, align 8
  %v3_229d = load i64, i64* %v2_2278, align 8
  store i64 %v3_229d, i64* @rdi, align 8
  %v1_22a5 = inttoptr i64 %v3_229d to i64*
  %v2_22a5 = load i64, i64* %v1_22a5, align 8
  store i64 %v2_22a5, i64* @rax, align 8
  store i64 %v0_2270, i64* @rbx, align 8
  ret i64 %v2_22a5
}

define i64 @_ZN3org4luaj3vm28LuaValue6tobyteEJcv() local_unnamed_addr {
dec_label_pc_22c0:
  store i64 0, i64* @rax, align 8
  ret i64 0
}

define i64 @_ZN3org4luaj3vm28LuaValue6tocharEJwv() local_unnamed_addr {
dec_label_pc_22d0:
  store i64 0, i64* @rax, align 8
  ret i64 0
}

define i128 @_ZN3org4luaj3vm28LuaValue8todoubleEJdv() local_unnamed_addr {
dec_label_pc_22e0:
  %xmm0.global-to-local = alloca i128, align 8
  %v0_22e0 = load i128, i128* %xmm0.global-to-local, align 8
  %v2_22e0 = call i128 @__asm_pxor(i128 %v0_22e0, i128 %v0_22e0)
  store i128 %v2_22e0, i128* %xmm0.global-to-local, align 8
  ret i128 %v2_22e0
}

define i128 @_ZN3org4luaj3vm28LuaValue7tofloatEJfv() local_unnamed_addr {
dec_label_pc_22f0:
  %xmm0.global-to-local = alloca i128, align 8
  %v0_22f0 = load i128, i128* %xmm0.global-to-local, align 8
  %v2_22f0 = call i128 @__asm_pxor(i128 %v0_22f0, i128 %v0_22f0)
  store i128 %v2_22f0, i128* %xmm0.global-to-local, align 8
  ret i128 %v2_22f0
}

define i64 @_ZN3org4luaj3vm28LuaValue6tolongEJxv() local_unnamed_addr {
dec_label_pc_2300:
  store i64 0, i64* @rax, align 8
  ret i64 0
}

define i64 @_ZN3org4luaj3vm28LuaValue7toshortEJsv() local_unnamed_addr {
dec_label_pc_2310:
  store i64 0, i64* @rax, align 8
  ret i64 0
}

define i64 @_ZN3org4luaj3vm28LuaValue10touserdataEJPN4java4lang6ObjectEv() local_unnamed_addr {
dec_label_pc_2320:
  store i64 0, i64* @rax, align 8
  ret i64 0
}

define i64 @_ZN3org4luaj3vm28LuaValue10touserdataEJPN4java4lang6ObjectEPNS4_5ClassE() local_unnamed_addr {
dec_label_pc_2330:
  store i64 0, i64* @rax, align 8
  ret i64 0
}

define i64 @_ZN3org4luaj3vm28LuaValue8toStringEJPN4java4lang6StringEv(i64 %arg1) local_unnamed_addr {
dec_label_pc_2340:
  store i64 %arg1, i64* @rdi, align 8
  %v2_2344 = load i64, i64* @rdi, align 8
  store i64 %v2_2344, i64* @rax, align 8
  ret i64 %v2_2344
}

define i64 @_ZN3org4luaj3vm28LuaValue10optbooleanEJbb(i64 %arg1) local_unnamed_addr {
dec_label_pc_2360:
  store i64 %arg1, i64* @rdi, align 8
  store i64 0, i64* @rax, align 8
  ret i64 0
}

define i64 @_ZN3org4luaj3vm28LuaValue10optclosureEJPNS1_10LuaClosureES4_(i64 %arg1) local_unnamed_addr {
dec_label_pc_2380:
  store i64 %arg1, i64* @rdi, align 8
  store i64 0, i64* @rax, align 8
  ret i64 0
}

define i64 @_ZN3org4luaj3vm28LuaValue9optdoubleEJdd(i64 %arg1) local_unnamed_addr {
dec_label_pc_23a0:
  %xmm0.global-to-local = alloca i128, align 8
  store i64 %arg1, i64* @rdi, align 8
  %v2_23a4 = load i64, i64* @rdi, align 8
  store i64 %v2_23a4, i64* @rax, align 8
  %v0_23b4 = load i128, i128* %xmm0.global-to-local, align 8
  %v2_23b4 = call i128 @__asm_pxor(i128 %v0_23b4, i128 %v0_23b4)
  store i128 %v2_23b4, i128* %xmm0.global-to-local, align 8
  %v0_23bc = load i64, i64* @rax, align 8
  ret i64 %v0_23bc
}

define i64 @_ZN3org4luaj3vm28LuaValue11optfunctionEJPNS1_11LuaFunctionES4_(i64 %arg1) local_unnamed_addr {
dec_label_pc_23c0:
  store i64 %arg1, i64* @rdi, align 8
  store i64 0, i64* @rax, align 8
  ret i64 0
}

define i64 @_ZN3org4luaj3vm28LuaValue6optintEJii(i64 %arg1) local_unnamed_addr {
dec_label_pc_23e0:
  store i64 %arg1, i64* @rdi, align 8
  store i64 0, i64* @rax, align 8
  ret i64 0
}

define i64 @_ZN3org4luaj3vm28LuaValue10optintegerEJPNS1_10LuaIntegerES4_(i64 %arg1) local_unnamed_addr {
dec_label_pc_2400:
  store i64 %arg1, i64* @rdi, align 8
  store i64 0, i64* @rax, align 8
  ret i64 0
}

define i64 @_ZN3org4luaj3vm28LuaValue7optlongEJxx(i64 %arg1) local_unnamed_addr {
dec_label_pc_2420:
  store i64 %arg1, i64* @rdi, align 8
  store i64 0, i64* @rax, align 8
  ret i64 0
}

define i64 @_ZN3org4luaj3vm28LuaValue9optnumberEJPNS1_9LuaNumberES4_(i64 %arg1) local_unnamed_addr {
dec_label_pc_2440:
  store i64 %arg1, i64* @rdi, align 8
  store i64 0, i64* @rax, align 8
  ret i64 0
}

define i64 @_ZN3org4luaj3vm28LuaValue10optjstringEJPN4java4lang6StringES6_(i64 %arg1) local_unnamed_addr {
dec_label_pc_2460:
  store i64 %arg1, i64* @rdi, align 8
  store i64 0, i64* @rax, align 8
  ret i64 0
}

define i64 @_ZN3org4luaj3vm28LuaValue9optstringEJPNS1_9LuaStringES4_(i64 %arg1) local_unnamed_addr {
dec_label_pc_2480:
  store i64 %arg1, i64* @rdi, align 8
  store i64 0, i64* @rax, align 8
  ret i64 0
}

define i64 @_ZN3org4luaj3vm28LuaValue8opttableEJPNS1_8LuaTableES4_(i64 %arg1) local_unnamed_addr {
dec_label_pc_24a0:
  store i64 %arg1, i64* @rdi, align 8
  store i64 0, i64* @rax, align 8
  ret i64 0
}

define i64 @_ZN3org4luaj3vm28LuaValue9optthreadEJPNS1_9LuaThreadES4_(i64 %arg1) local_unnamed_addr {
dec_label_pc_24c0:
  store i64 %arg1, i64* @rdi, align 8
  store i64 0, i64* @rax, align 8
  ret i64 0
}

define i64 @_ZN3org4luaj3vm28LuaValue11optuserdataEJPN4java4lang6ObjectES6_(i64 %arg1) local_unnamed_addr {
dec_label_pc_24e0:
  store i64 %arg1, i64* @rdi, align 8
  store i64 0, i64* @rax, align 8
  ret i64 0
}

define i64 @_ZN3org4luaj3vm28LuaValue8optvalueEJPS2_S3_(i64 %arg1) local_unnamed_addr {
dec_label_pc_2500:
  store i64 %arg1, i64* @rdi, align 8
  store i64 %arg1, i64* @rax, align 8
  ret i64 %arg1
}

define i64 @_ZN3org4luaj3vm28LuaValue12checkbooleanEJbv(i64 %arg1) local_unnamed_addr {
dec_label_pc_2510:
  store i64 %arg1, i64* @rdi, align 8
  store i64 0, i64* @rax, align 8
  ret i64 0
}

define i64 @_ZN3org4luaj3vm28LuaValue12checkclosureEJPNS1_10LuaClosureEv(i64 %arg1) local_unnamed_addr {
dec_label_pc_2530:
  store i64 %arg1, i64* @rdi, align 8
  store i64 0, i64* @rax, align 8
  ret i64 0
}

define i64 @_ZN3org4luaj3vm28LuaValue11checkdoubleEJdv(i64 %arg1) local_unnamed_addr {
dec_label_pc_2550:
  %xmm0.global-to-local = alloca i128, align 8
  store i64 %arg1, i64* @rdi, align 8
  %v2_2554 = load i64, i64* @rdi, align 8
  store i64 %v2_2554, i64* @rax, align 8
  %v0_2564 = load i128, i128* %xmm0.global-to-local, align 8
  %v2_2564 = call i128 @__asm_pxor(i128 %v0_2564, i128 %v0_2564)
  store i128 %v2_2564, i128* %xmm0.global-to-local, align 8
  %v0_256c = load i64, i64* @rax, align 8
  ret i64 %v0_256c
}

define i64 @_ZN3org4luaj3vm28LuaValue13checkfunctionEJPNS1_11LuaFunctionEv(i64 %arg1) local_unnamed_addr {
dec_label_pc_2570:
  store i64 %arg1, i64* @rdi, align 8
  store i64 0, i64* @rax, align 8
  ret i64 0
}

define i64 @_ZN3org4luaj3vm28LuaValue12checkglobalsEJPNS1_7GlobalsEv(i64 %arg1) local_unnamed_addr {
dec_label_pc_2590:
  store i64 %arg1, i64* @rdi, align 8
  store i64 0, i64* @rax, align 8
  ret i64 0
}

define i64 @_ZN3org4luaj3vm28LuaValue8checkintEJiv(i64 %arg1) local_unnamed_addr {
dec_label_pc_25b0:
  store i64 %arg1, i64* @rdi, align 8
  store i64 0, i64* @rax, align 8
  ret i64 0
}

define i64 @_ZN3org4luaj3vm28LuaValue12checkintegerEJPNS1_10LuaIntegerEv(i64 %arg1) local_unnamed_addr {
dec_label_pc_25d0:
  store i64 %arg1, i64* @rdi, align 8
  store i64 0, i64* @rax, align 8
  ret i64 0
}

define i64 @_ZN3org4luaj3vm28LuaValue9checklongEJxv(i64 %arg1) local_unnamed_addr {
dec_label_pc_25f0:
  store i64 %arg1, i64* @rdi, align 8
  store i64 0, i64* @rax, align 8
  ret i64 0
}

define i64 @_ZN3org4luaj3vm28LuaValue11checknumberEJPNS1_9LuaNumberEv(i64 %arg1) local_unnamed_addr {
dec_label_pc_2610:
  store i64 %arg1, i64* @rdi, align 8
  store i64 0, i64* @rax, align 8
  ret i64 0
}

define i64 @_ZN3org4luaj3vm28LuaValue12checkjstringEJPN4java4lang6StringEv(i64 %arg1) local_unnamed_addr {
dec_label_pc_2630:
  store i64 %arg1, i64* @rdi, align 8
  store i64 0, i64* @rax, align 8
  ret i64 0
}

define i64 @_ZN3org4luaj3vm28LuaValue11checkstringEJPNS1_9LuaStringEv(i64 %arg1) local_unnamed_addr {
dec_label_pc_2650:
  store i64 %arg1, i64* @rdi, align 8
  store i64 0, i64* @rax, align 8
  ret i64 0
}

define i64 @_ZN3org4luaj3vm28LuaValue10checktableEJPNS1_8LuaTableEv(i64 %arg1) local_unnamed_addr {
dec_label_pc_2670:
  store i64 %arg1, i64* @rdi, align 8
  store i64 0, i64* @rax, align 8
  ret i64 0
}

define i64 @_ZN3org4luaj3vm28LuaValue11checkthreadEJPNS1_9LuaThreadEv(i64 %arg1) local_unnamed_addr {
dec_label_pc_2690:
  store i64 %arg1, i64* @rdi, align 8
  store i64 0, i64* @rax, align 8
  ret i64 0
}

define i64 @_ZN3org4luaj3vm28LuaValue13checkuserdataEJPN4java4lang6ObjectEv(i64 %arg1) local_unnamed_addr {
dec_label_pc_26b0:
  store i64 %arg1, i64* @rdi, align 8
  store i64 0, i64* @rax, align 8
  ret i64 0
}

define i64 @_ZN3org4luaj3vm28LuaValue13checkuserdataEJPN4java4lang6ObjectEPNS4_5ClassE(i64 %arg1) local_unnamed_addr {
dec_label_pc_26d0:
  store i64 %arg1, i64* @rdi, align 8
  store i64 0, i64* @rax, align 8
  ret i64 0
}

define i64 @_ZN3org4luaj3vm28LuaValue6rawgetEJPS2_S3_(i64 %arg1) local_unnamed_addr {
dec_label_pc_26f0:
  store i64 %arg1, i64* @rdi, align 8
  %v2_26f4 = load i64, i64* @rdi, align 8
  store i64 %v2_26f4, i64* @rax, align 8
  ret i64 %v2_26f4
}

define i64 @_ZN3org4luaj3vm28LuaValue6rawsetEJvPS2_S3_(i64 %arg1) local_unnamed_addr {
dec_label_pc_2710:
  store i64 %arg1, i64* @rdi, align 8
  %v2_2714 = load i64, i64* @rdi, align 8
  store i64 %v2_2714, i64* @rax, align 8
  ret i64 %v2_2714
}

define i64 @_ZN3org4luaj3vm28LuaValue10rawsetlistEJviPNS1_7VarargsE(i64 %arg1, i64 %arg2, i64 %arg3) local_unnamed_addr {
dec_label_pc_2730:
  %r12.global-to-local = alloca i64, align 8
  %r13.global-to-local = alloca i64, align 8
  %r14.global-to-local = alloca i64, align 8
  %r15.global-to-local = alloca i64, align 8
  %rbp.global-to-local = alloca i64, align 8
  %rsi.global-to-local = alloca i64, align 8
  store i64 %arg3, i64* @rdx, align 8
  store i64 %arg2, i64* %rsi.global-to-local, align 8
  store i64 %arg1, i64* @rdi, align 8
  %v0_2730 = load i64, i64* %r15.global-to-local, align 8
  %v0_2732 = load i64, i64* %r14.global-to-local, align 8
  %v0_2734 = load i64, i64* %rsi.global-to-local, align 8
  store i64 %v0_2734, i64* %r15.global-to-local, align 8
  %v0_2737 = load i64, i64* %r13.global-to-local, align 8
  %v0_2739 = load i64, i64* %r12.global-to-local, align 8
  %v0_273b = load i64, i64* @rdi, align 8
  store i64 %v0_273b, i64* %r12.global-to-local, align 8
  %v0_273e = load i64, i64* %rbp.global-to-local, align 8
  %v0_273f = load i64, i64* @rbx, align 8
  %v0_2740 = load i64, i64* @rdx, align 8
  store i64 %v0_2740, i64* %rbp.global-to-local, align 8
  store i64 %v0_2740, i64* @rdi, align 8
  store i64 %v0_2740, i64* @rax, align 8
  %v4_2750 = trunc i64 %v0_2740 to i32
  %tmp249 = icmp slt i32 %v4_2750, 1
  br i1 %tmp249, label %dec_label_pc_278b, label %dec_label_pc_2754

dec_label_pc_2754:                                ; preds = %dec_label_pc_2730
  store i64 %v0_2740, i64* %r14.global-to-local, align 8
  store i64 0, i64* @rbx, align 8
  br label %dec_label_pc_2760

dec_label_pc_2760:                                ; preds = %dec_label_pc_2760, %dec_label_pc_2754
  %v2_27865 = phi i64 [ %v17_2768, %dec_label_pc_2760 ], [ 0, %dec_label_pc_2754 ]
  %v2_2768 = add nuw nsw i64 %v2_27865, 1
  %v17_2768 = and i64 %v2_2768, 4294967295
  %v3_2786 = trunc i64 %v2_2768 to i32
  %v14_2786 = icmp eq i32 %v4_2750, %v3_2786
  %v1_2789 = icmp eq i1 %v14_2786, false
  br i1 %v1_2789, label %dec_label_pc_2760, label %dec_label_pc_278b.loopexit

dec_label_pc_278b.loopexit:                       ; preds = %dec_label_pc_2760
  %v3_2764.le = add i64 %v2_27865, %v0_2734
  store i64 %v0_2740, i64* @rax, align 8
  store i64 %v17_2768, i64* @rbx, align 8
  store i64 %v3_2764.le, i64* %r13.global-to-local, align 8
  store i64 %v3_2764.le, i64* %rsi.global-to-local, align 8
  store i64 %v0_273b, i64* @rdi, align 8
  store i64 %v0_2740, i64* @rcx, align 8
  br label %dec_label_pc_278b

dec_label_pc_278b:                                ; preds = %dec_label_pc_278b.loopexit, %dec_label_pc_2730
  store i64 %v0_273f, i64* @rbx, align 8
  store i64 %v0_273e, i64* %rbp.global-to-local, align 8
  store i64 %v0_2739, i64* %r12.global-to-local, align 8
  store i64 %v0_2737, i64* %r13.global-to-local, align 8
  store i64 %v0_2732, i64* %r14.global-to-local, align 8
  store i64 %v0_2730, i64* %r15.global-to-local, align 8
  ret i64 %v0_2740
}

define i64 @_ZN3org4luaj3vm28LuaValue7presizeEJvi(i64 %arg1) local_unnamed_addr {
dec_label_pc_27a0:
  store i64 %arg1, i64* @rdi, align 8
  %v2_27a4 = load i64, i64* @rdi, align 8
  store i64 %v2_27a4, i64* @rax, align 8
  ret i64 %v2_27a4
}

define i64 @_ZN3org4luaj3vm28LuaValue5inextEJPNS1_7VarargsEPS2_(i64 %arg1) local_unnamed_addr {
dec_label_pc_27c0:
  store i64 %arg1, i64* @rdi, align 8
  %v2_27c4 = load i64, i64* @rdi, align 8
  store i64 %v2_27c4, i64* @rax, align 8
  ret i64 %v2_27c4
}

define i64 @_ZN3org4luaj3vm28LuaValue4loadEJPS2_S3_(i64 %arg1, i64 %arg2) local_unnamed_addr {
dec_label_pc_27e0:
  store i64 %arg1, i64* @rdi, align 8
  %v0_27e4 = load i64, i64* @rdi, align 8
  store i64 %v0_27e4, i64* @rdx, align 8
  store i64 %arg2, i64* @rax, align 8
  store i64 %arg2, i64* @rdi, align 8
  ret i64 %arg2
}

define i64 @_ZN3org4luaj3vm28LuaValue3argEJPS2_i(i64 %arg1, i64 %arg2) local_unnamed_addr {
dec_label_pc_2800:
  store i64 %arg1, i64* @rdi, align 8
  %v1_2800 = trunc i64 %arg2 to i32
  %v11_2800 = icmp eq i32 %v1_2800, 1
  store i64 %arg1, i64* @rax, align 8
  %v1_2806 = icmp eq i1 %v11_2800, false
  %v3_2806 = load i64, i64* inttoptr (i64 10254 to i64*), align 8
  %v4_2806 = select i1 %v1_2806, i64 %v3_2806, i64 %arg1
  store i64 %v4_2806, i64* @rax, align 8
  ret i64 %v4_2806
}

define i64 @_ZN3org4luaj3vm28LuaValue12getmetatableEJPS2_v() local_unnamed_addr {
dec_label_pc_2810:
  %tmp234 = load i64, i64* @rax, align 8
  ret i64 %tmp234
}

define i64 @_ZN3org4luaj3vm28LuaValue12setmetatableEJPS2_S3_(i64 %arg1) local_unnamed_addr {
dec_label_pc_2820:
  store i64 %arg1, i64* @rdi, align 8
  %v2_2824 = load i64, i64* @rdi, align 8
  store i64 %v2_2824, i64* @rax, align 8
  ret i64 %v2_2824
}

define i64 @_ZN3org4luaj3vm28LuaValue4callEJPS2_v(i64 %arg1) local_unnamed_addr {
dec_label_pc_2840:
  store i64 %arg1, i64* @rdi, align 8
  %v2_2841 = load i64, i64* @rdi, align 8
  store i64 %v2_2841, i64* @rax, align 8
  store i64 %v2_2841, i64* @rdx, align 8
  ret i64 %v2_2841
}

define i64 @_ZN3org4luaj3vm28LuaValue4callEJPS2_S3_(i64 %arg1, i64 %arg2) local_unnamed_addr {
dec_label_pc_2860:
  store i64 %arg1, i64* @rdi, align 8
  %v0_2865 = load i64, i64* @rdi, align 8
  store i64 %v0_2865, i64* @rax, align 8
  store i64 %v0_2865, i64* @rcx, align 8
  store i64 %arg2, i64* @rdx, align 8
  ret i64 %v0_2865
}

define i64 @_ZN3org4luaj3vm28LuaValue4callEJPS2_S3_S3_(i64 %arg1, i64 %arg2, i64 %arg3) local_unnamed_addr {
dec_label_pc_2890:
  %rsi.global-to-local = alloca i64, align 8
  store i64 %arg3, i64* @rdx, align 8
  store i64 %arg2, i64* %rsi.global-to-local, align 8
  store i64 %arg1, i64* @rdi, align 8
  %v0_2893 = load i64, i64* @rdx, align 8
  %v2_2897 = load i64, i64* @rdi, align 8
  store i64 %v2_2897, i64* @rax, align 8
  %v0_289d = load i64, i64* %rsi.global-to-local, align 8
  store i64 %v0_2893, i64* @rcx, align 8
  store i64 %v0_289d, i64* @rdx, align 8
  store i64 %v2_2897, i64* %rsi.global-to-local, align 8
  ret i64 %v2_2897
}

define i64 @_ZN3org4luaj3vm28LuaValue6methodEJPS2_PN4java4lang6StringE(i64 %arg1) local_unnamed_addr {
dec_label_pc_28d0:
  store i64 %arg1, i64* @rdi, align 8
  %v2_28d1 = load i64, i64* @rdi, align 8
  store i64 %v2_28d1, i64* @rax, align 8
  store i64 %v2_28d1, i64* @rdx, align 8
  ret i64 %v2_28d1
}

define i64 @_ZN3org4luaj3vm28LuaValue6methodEJPS2_S3_(i64 %arg1) local_unnamed_addr {
dec_label_pc_28f0:
  store i64 %arg1, i64* @rdi, align 8
  %v2_28f1 = load i64, i64* @rdi, align 8
  store i64 %v2_28f1, i64* @rax, align 8
  store i64 %v2_28f1, i64* @rdx, align 8
  ret i64 %v2_28f1
}

define i64 @_ZN3org4luaj3vm28LuaValue6methodEJPS2_PN4java4lang6StringES3_(i64 %arg1, i64 %arg2, i64 %arg3) local_unnamed_addr {
dec_label_pc_2910:
  store i64 %arg3, i64* @rdx, align 8
  store i64 %arg1, i64* @rdi, align 8
  %v0_2915 = load i64, i64* @rdi, align 8
  store i64 %v0_2915, i64* @rax, align 8
  store i64 %v0_2915, i64* @rcx, align 8
  ret i64 %v0_2915
}

define i64 @_ZN3org4luaj3vm28LuaValue6methodEJPS2_S3_S3_(i64 %arg1, i64 %arg2, i64 %arg3) local_unnamed_addr {
dec_label_pc_2940:
  store i64 %arg3, i64* @rdx, align 8
  store i64 %arg1, i64* @rdi, align 8
  %v0_2945 = load i64, i64* @rdi, align 8
  store i64 %v0_2945, i64* @rax, align 8
  store i64 %v0_2945, i64* @rcx, align 8
  ret i64 %v0_2945
}

define i64 @_ZN3org4luaj3vm28LuaValue6methodEJPS2_PN4java4lang6StringES3_S3_(i64 %arg1, i64 %arg2, i64 %arg3, i64 %arg4) local_unnamed_addr {
dec_label_pc_2970:
  store i64 %arg4, i64* @rcx, align 8
  store i64 %arg3, i64* @rdx, align 8
  store i64 %arg1, i64* @rdi, align 8
  %v2_2977 = load i64, i64* @rdi, align 8
  store i64 %v2_2977, i64* @rax, align 8
  ret i64 %v2_2977
}

define i64 @_ZN3org4luaj3vm28LuaValue6methodEJPS2_S3_S3_S3_(i64 %arg1, i64 %arg2, i64 %arg3, i64 %arg4) local_unnamed_addr {
dec_label_pc_29b0:
  store i64 %arg4, i64* @rcx, align 8
  store i64 %arg3, i64* @rdx, align 8
  store i64 %arg1, i64* @rdi, align 8
  %v2_29b7 = load i64, i64* @rdi, align 8
  store i64 %v2_29b7, i64* @rax, align 8
  ret i64 %v2_29b7
}

define i64 @_ZN3org4luaj3vm28LuaValue6invokeEJPNS1_7VarargsEv(i64 %arg1) local_unnamed_addr {
dec_label_pc_29f0:
  store i64 %arg1, i64* @rdi, align 8
  %v2_29f4 = load i64, i64* @rdi, align 8
  store i64 %v2_29f4, i64* @rax, align 8
  ret i64 %v2_29f4
}

define i64 @_ZN3org4luaj3vm28LuaValue6invokeEJPNS1_7VarargsES4_(i64 %arg1, i64 %arg2) local_unnamed_addr {
dec_label_pc_2a10:
  store i64 %arg1, i64* @rdi, align 8
  %v0_2a15 = load i64, i64* @rdi, align 8
  store i64 %v0_2a15, i64* @rax, align 8
  store i64 %v0_2a15, i64* @rcx, align 8
  store i64 %arg2, i64* @rdx, align 8
  ret i64 %v0_2a15
}

define i64 @_ZN3org4luaj3vm28LuaValue12invokemethodEJPNS1_7VarargsEPN4java4lang6StringE(i64 %arg1) local_unnamed_addr {
dec_label_pc_2a40:
  store i64 %arg1, i64* @rdi, align 8
  %v2_2a41 = load i64, i64* @rdi, align 8
  store i64 %v2_2a41, i64* @rax, align 8
  store i64 %v2_2a41, i64* @rdx, align 8
  ret i64 %v2_2a41
}

define i64 @_ZN3org4luaj3vm28LuaValue12invokemethodEJPNS1_7VarargsEPS2_(i64 %arg1) local_unnamed_addr {
dec_label_pc_2a60:
  store i64 %arg1, i64* @rdi, align 8
  %v2_2a61 = load i64, i64* @rdi, align 8
  store i64 %v2_2a61, i64* @rax, align 8
  store i64 %v2_2a61, i64* @rdx, align 8
  ret i64 %v2_2a61
}

define i64 @_ZN3org4luaj3vm28LuaValue6callmtEJPS2_v(i64 %arg1) local_unnamed_addr {
dec_label_pc_2a80:
  store i64 %arg1, i64* @rdi, align 8
  %v2_2a84 = load i64, i64* @rdi, align 8
  store i64 %v2_2a84, i64* @rax, align 8
  %v0_2a87 = load i64, i64* inttoptr (i64 10894 to i64*), align 8
  store i64 %v0_2a87, i64* @rdx, align 8
  ret i64 %v2_2a84
}

define i64 @"_ZN3org4luaj3vm28LuaValue4not$EJPS2_v"() local_unnamed_addr {
dec_label_pc_2aa0:
  %v0_2aa0 = load i64, i64* inttoptr (i64 10919 to i64*), align 8
  store i64 %v0_2aa0, i64* @rax, align 8
  ret i64 %v0_2aa0
}

define i64 @_ZN3org4luaj3vm28LuaValue3negEJPS2_v(i64 %arg1) local_unnamed_addr {
dec_label_pc_2ab0:
  store i64 %arg1, i64* @rdi, align 8
  %v0_2ab0 = load i64, i64* @rbx, align 8
  %v2_2ab1 = load i64, i64* @rdi, align 8
  store i64 %v2_2ab1, i64* @rax, align 8
  store i64 %v2_2ab1, i64* @rdx, align 8
  store i64 %v0_2ab0, i64* @rbx, align 8
  ret i64 %v2_2ab1
}

define i64 @_ZN3org4luaj3vm28LuaValue3lenEJPS2_v(i64 %arg1) local_unnamed_addr {
dec_label_pc_2ae0:
  store i64 %arg1, i64* @rdi, align 8
  %v0_2ae0 = load i64, i64* @rbx, align 8
  %v2_2ae1 = load i64, i64* @rdi, align 8
  store i64 %v2_2ae1, i64* @rax, align 8
  store i64 %v2_2ae1, i64* @rdx, align 8
  store i64 %v0_2ae0, i64* @rbx, align 8
  ret i64 %v2_2ae1
}

define i64 @_ZN3org4luaj3vm28LuaValue6lengthEJiv(i64 %arg1) local_unnamed_addr {
dec_label_pc_2b10:
  store i64 %arg1, i64* @rdi, align 8
  %v2_2b14 = load i64, i64* @rdi, align 8
  store i64 %v2_2b14, i64* @rax, align 8
  store i64 %v2_2b14, i64* @rdx, align 8
  ret i64 %v2_2b14
}

define i64 @_ZN3org4luaj3vm28LuaValue6rawlenEJiv(i64 %arg1) local_unnamed_addr {
dec_label_pc_2b30:
  store i64 %arg1, i64* @rdi, align 8
  store i64 0, i64* @rax, align 8
  ret i64 0
}

define i64 @_ZN3org4luaj3vm28LuaValue6equalsEJbPN4java4lang6ObjectE(i64 %arg1, i64 %arg2) local_unnamed_addr {
dec_label_pc_2b50:
  store i64 %arg1, i64* @rdi, align 8
  %v12_2b50 = icmp eq i64 %arg1, %arg2
  %v1_2b53 = zext i1 %v12_2b50 to i64
  %v2_2b53 = load i64, i64* @rax, align 8
  %v3_2b53 = and i64 %v2_2b53, -256
  %v4_2b53 = or i64 %v3_2b53, %v1_2b53
  store i64 %v4_2b53, i64* @rax, align 8
  ret i64 %v4_2b53
}

define i64 @_ZN3org4luaj3vm28LuaValue2eqEJPS2_S3_(i64 %arg1) local_unnamed_addr {
dec_label_pc_2b60:
  store i64 %arg1, i64* @rdi, align 8
  %v2_2b64 = load i64, i64* @rdi, align 8
  store i64 %v2_2b64, i64* @rax, align 8
  %v4_2b6d = trunc i64 %v2_2b64 to i8
  %v5_2b6d = icmp eq i8 %v4_2b6d, 0
  %v0_2b6f = load i64, i64* inttoptr (i64 11126 to i64*), align 8
  store i64 %v0_2b6f, i64* @rax, align 8
  %v2_2b76 = load i64, i64* inttoptr (i64 11134 to i64*), align 8
  %v3_2b76 = select i1 %v5_2b6d, i64 %v2_2b76, i64 %v0_2b6f
  store i64 %v3_2b76, i64* @rax, align 8
  ret i64 %v3_2b76
}

define i64 @_ZN3org4luaj3vm28LuaValue3neqEJPS2_S3_(i64 %arg1) local_unnamed_addr {
dec_label_pc_2b90:
  store i64 %arg1, i64* @rdi, align 8
  %v2_2b94 = load i64, i64* @rdi, align 8
  store i64 %v2_2b94, i64* @rax, align 8
  %v4_2b9d = trunc i64 %v2_2b94 to i8
  %v5_2b9d = icmp eq i8 %v4_2b9d, 0
  %v0_2b9f = load i64, i64* inttoptr (i64 11174 to i64*), align 8
  store i64 %v0_2b9f, i64* @rax, align 8
  %v2_2ba6 = load i64, i64* inttoptr (i64 11182 to i64*), align 8
  %v3_2ba6 = select i1 %v5_2b9d, i64 %v2_2ba6, i64 %v0_2b9f
  store i64 %v3_2ba6, i64* @rax, align 8
  ret i64 %v3_2ba6
}

define i64 @_ZN3org4luaj3vm28LuaValue5neq_bEJbPS2_(i64 %arg1) local_unnamed_addr {
dec_label_pc_2bc0:
  store i64 %arg1, i64* @rdi, align 8
  %v2_2bc4 = load i64, i64* @rdi, align 8
  %v2_2bcd = and i64 %v2_2bc4, 4294967295
  %v9_2bcd = xor i64 %v2_2bcd, 1
  store i64 %v9_2bcd, i64* @rax, align 8
  ret i64 %v9_2bcd
}

define i64 @_ZN3org4luaj3vm28LuaValue5raweqEJbPS2_(i64 %arg1, i64 %arg2) local_unnamed_addr {
dec_label_pc_2be0:
  store i64 %arg1, i64* @rdi, align 8
  %v12_2be0 = icmp eq i64 %arg1, %arg2
  %v1_2be3 = zext i1 %v12_2be0 to i64
  %v2_2be3 = load i64, i64* @rax, align 8
  %v3_2be3 = and i64 %v2_2be3, -256
  %v4_2be3 = or i64 %v3_2be3, %v1_2be3
  store i64 %v4_2be3, i64* @rax, align 8
  ret i64 %v4_2be3
}

define i64 @_ZN3org4luaj3vm28LuaValue5raweqEJbPNS1_9LuaStringE() local_unnamed_addr {
dec_label_pc_2bf0:
  store i64 0, i64* @rax, align 8
  ret i64 0
}

define i64 @_ZN3org4luaj3vm28LuaValue5raweqEJbd() local_unnamed_addr {
dec_label_pc_2c00:
  store i64 0, i64* @rax, align 8
  ret i64 0
}

define i64 @_ZN3org4luaj3vm28LuaValue5raweqEJbi() local_unnamed_addr {
dec_label_pc_2c10:
  store i64 0, i64* @rax, align 8
  ret i64 0
}

define i64 @_ZN3org4luaj3vm28LuaValue3addEJPS2_S3_(i64 %arg1, i64 %arg2) local_unnamed_addr {
dec_label_pc_2c20:
  store i64 %arg1, i64* @rdi, align 8
  store i64 %arg2, i64* @rdx, align 8
  %v2_2c27 = load i64, i64* @rdi, align 8
  store i64 %v2_2c27, i64* @rax, align 8
  ret i64 %v2_2c27
}

define i64 @_ZN3org4luaj3vm28LuaValue3addEJPS2_d(i64 %arg1) local_unnamed_addr {
dec_label_pc_2c40:
  store i64 %arg1, i64* @rdi, align 8
  %v2_2c44 = load i64, i64* @rdi, align 8
  store i64 %v2_2c44, i64* @rax, align 8
  ret i64 %v2_2c44
}

define i64 @_ZN3org4luaj3vm28LuaValue3addEJPS2_i(i64 %arg1, i64 %arg2) local_unnamed_addr {
dec_label_pc_2c60:
  %xmm0.global-to-local = alloca i128, align 8
  store i64 %arg1, i64* @rdi, align 8
  %v0_2c60 = load i128, i128* %xmm0.global-to-local, align 8
  %v2_2c60 = call i128 @__asm_pxor(i128 %v0_2c60, i128 %v0_2c60)
  store i128 %v2_2c60, i128* %xmm0.global-to-local, align 8
  %v2_2c68 = load i64, i64* @rdi, align 8
  store i64 %v2_2c68, i64* @rax, align 8
  %v1_2c6b = trunc i64 %arg2 to i32
  %v2_2c6b = call i128 @__asm_cvtsi2sd.7468(i32 %v1_2c6b)
  store i128 %v2_2c6b, i128* %xmm0.global-to-local, align 8
  %v0_2c79 = load i64, i64* @rax, align 8
  ret i64 %v0_2c79
}

define i64 @_ZN3org4luaj3vm28LuaValue3subEJPS2_S3_(i64 %arg1, i64 %arg2) local_unnamed_addr {
dec_label_pc_2c80:
  store i64 %arg1, i64* @rdi, align 8
  store i64 %arg2, i64* @rdx, align 8
  %v2_2c87 = load i64, i64* @rdi, align 8
  store i64 %v2_2c87, i64* @rax, align 8
  ret i64 %v2_2c87
}

define i64 @_ZN3org4luaj3vm28LuaValue3subEJPS2_d(i64 %arg1) local_unnamed_addr {
dec_label_pc_2ca0:
  store i64 %arg1, i64* @rdi, align 8
  %v2_2ca4 = load i64, i64* @rdi, align 8
  store i64 %v2_2ca4, i64* @rax, align 8
  ret i64 %v2_2ca4
}

define i64 @_ZN3org4luaj3vm28LuaValue3subEJPS2_i(i64 %arg1) local_unnamed_addr {
dec_label_pc_2cc0:
  store i64 %arg1, i64* @rdi, align 8
  %v2_2cc4 = load i64, i64* @rdi, align 8
  store i64 %v2_2cc4, i64* @rax, align 8
  ret i64 %v2_2cc4
}

define i64 @_ZN3org4luaj3vm28LuaValue7subFromEJPS2_d(i64 %arg1) local_unnamed_addr {
dec_label_pc_2ce0:
  store i64 %arg1, i64* @rdi, align 8
  %v2_2ce4 = load i64, i64* @rdi, align 8
  store i64 %v2_2ce4, i64* @rax, align 8
  ret i64 %v2_2ce4
}

define i64 @_ZN3org4luaj3vm28LuaValue7subFromEJPS2_i(i64 %arg1, i64 %arg2) local_unnamed_addr {
dec_label_pc_2d00:
  %xmm0.global-to-local = alloca i128, align 8
  store i64 %arg1, i64* @rdi, align 8
  %v0_2d00 = load i128, i128* %xmm0.global-to-local, align 8
  %v2_2d00 = call i128 @__asm_pxor(i128 %v0_2d00, i128 %v0_2d00)
  store i128 %v2_2d00, i128* %xmm0.global-to-local, align 8
  %v2_2d08 = load i64, i64* @rdi, align 8
  store i64 %v2_2d08, i64* @rax, align 8
  %v1_2d0b = trunc i64 %arg2 to i32
  %v2_2d0b = call i128 @__asm_cvtsi2sd.7468(i32 %v1_2d0b)
  store i128 %v2_2d0b, i128* %xmm0.global-to-local, align 8
  %v0_2d19 = load i64, i64* @rax, align 8
  ret i64 %v0_2d19
}

define i64 @_ZN3org4luaj3vm28LuaValue3mulEJPS2_S3_(i64 %arg1, i64 %arg2) local_unnamed_addr {
dec_label_pc_2d20:
  store i64 %arg1, i64* @rdi, align 8
  store i64 %arg2, i64* @rdx, align 8
  %v2_2d27 = load i64, i64* @rdi, align 8
  store i64 %v2_2d27, i64* @rax, align 8
  ret i64 %v2_2d27
}

define i64 @_ZN3org4luaj3vm28LuaValue3mulEJPS2_d(i64 %arg1) local_unnamed_addr {
dec_label_pc_2d40:
  store i64 %arg1, i64* @rdi, align 8
  %v2_2d44 = load i64, i64* @rdi, align 8
  store i64 %v2_2d44, i64* @rax, align 8
  ret i64 %v2_2d44
}

define i64 @_ZN3org4luaj3vm28LuaValue3mulEJPS2_i(i64 %arg1, i64 %arg2) local_unnamed_addr {
dec_label_pc_2d60:
  %xmm0.global-to-local = alloca i128, align 8
  store i64 %arg1, i64* @rdi, align 8
  %v0_2d60 = load i128, i128* %xmm0.global-to-local, align 8
  %v2_2d60 = call i128 @__asm_pxor(i128 %v0_2d60, i128 %v0_2d60)
  store i128 %v2_2d60, i128* %xmm0.global-to-local, align 8
  %v2_2d68 = load i64, i64* @rdi, align 8
  store i64 %v2_2d68, i64* @rax, align 8
  %v1_2d6b = trunc i64 %arg2 to i32
  %v2_2d6b = call i128 @__asm_cvtsi2sd.7468(i32 %v1_2d6b)
  store i128 %v2_2d6b, i128* %xmm0.global-to-local, align 8
  %v0_2d79 = load i64, i64* @rax, align 8
  ret i64 %v0_2d79
}

define i64 @_ZN3org4luaj3vm28LuaValue3powEJPS2_S3_(i64 %arg1, i64 %arg2) local_unnamed_addr {
dec_label_pc_2d80:
  store i64 %arg1, i64* @rdi, align 8
  store i64 %arg2, i64* @rdx, align 8
  %v2_2d87 = load i64, i64* @rdi, align 8
  store i64 %v2_2d87, i64* @rax, align 8
  ret i64 %v2_2d87
}

define i64 @_ZN3org4luaj3vm28LuaValue3powEJPS2_d(i64 %arg1) local_unnamed_addr {
dec_label_pc_2da0:
  store i64 %arg1, i64* @rdi, align 8
  %v2_2da4 = load i64, i64* @rdi, align 8
  store i64 %v2_2da4, i64* @rax, align 8
  ret i64 %v2_2da4
}

define i64 @_ZN3org4luaj3vm28LuaValue3powEJPS2_i(i64 %arg1) local_unnamed_addr {
dec_label_pc_2dc0:
  store i64 %arg1, i64* @rdi, align 8
  %v2_2dc4 = load i64, i64* @rdi, align 8
  store i64 %v2_2dc4, i64* @rax, align 8
  ret i64 %v2_2dc4
}

define i64 @_ZN3org4luaj3vm28LuaValue7powWithEJPS2_d(i64 %arg1) local_unnamed_addr {
dec_label_pc_2de0:
  store i64 %arg1, i64* @rdi, align 8
  %v2_2de4 = load i64, i64* @rdi, align 8
  store i64 %v2_2de4, i64* @rax, align 8
  ret i64 %v2_2de4
}

define i64 @_ZN3org4luaj3vm28LuaValue7powWithEJPS2_i(i64 %arg1, i64 %arg2) local_unnamed_addr {
dec_label_pc_2e00:
  %xmm0.global-to-local = alloca i128, align 8
  store i64 %arg1, i64* @rdi, align 8
  %v0_2e00 = load i128, i128* %xmm0.global-to-local, align 8
  %v2_2e00 = call i128 @__asm_pxor(i128 %v0_2e00, i128 %v0_2e00)
  store i128 %v2_2e00, i128* %xmm0.global-to-local, align 8
  %v2_2e08 = load i64, i64* @rdi, align 8
  store i64 %v2_2e08, i64* @rax, align 8
  %v1_2e0b = trunc i64 %arg2 to i32
  %v2_2e0b = call i128 @__asm_cvtsi2sd.7468(i32 %v1_2e0b)
  store i128 %v2_2e0b, i128* %xmm0.global-to-local, align 8
  %v0_2e19 = load i64, i64* @rax, align 8
  ret i64 %v0_2e19
}

define i64 @_ZN3org4luaj3vm28LuaValue3divEJPS2_S3_(i64 %arg1, i64 %arg2) local_unnamed_addr {
dec_label_pc_2e20:
  store i64 %arg1, i64* @rdi, align 8
  store i64 %arg2, i64* @rdx, align 8
  %v2_2e27 = load i64, i64* @rdi, align 8
  store i64 %v2_2e27, i64* @rax, align 8
  ret i64 %v2_2e27
}

define i64 @_ZN3org4luaj3vm28LuaValue3divEJPS2_d(i64 %arg1) local_unnamed_addr {
dec_label_pc_2e40:
  store i64 %arg1, i64* @rdi, align 8
  %v2_2e44 = load i64, i64* @rdi, align 8
  store i64 %v2_2e44, i64* @rax, align 8
  ret i64 %v2_2e44
}

define i64 @_ZN3org4luaj3vm28LuaValue3divEJPS2_i(i64 %arg1) local_unnamed_addr {
dec_label_pc_2e60:
  store i64 %arg1, i64* @rdi, align 8
  %v2_2e64 = load i64, i64* @rdi, align 8
  store i64 %v2_2e64, i64* @rax, align 8
  ret i64 %v2_2e64
}

define i64 @_ZN3org4luaj3vm28LuaValue7divIntoEJPS2_d(i64 %arg1) local_unnamed_addr {
dec_label_pc_2e80:
  store i64 %arg1, i64* @rdi, align 8
  %v2_2e84 = load i64, i64* @rdi, align 8
  store i64 %v2_2e84, i64* @rax, align 8
  ret i64 %v2_2e84
}

define i64 @_ZN3org4luaj3vm28LuaValue3modEJPS2_S3_(i64 %arg1, i64 %arg2) local_unnamed_addr {
dec_label_pc_2ea0:
  store i64 %arg1, i64* @rdi, align 8
  store i64 %arg2, i64* @rdx, align 8
  %v2_2ea7 = load i64, i64* @rdi, align 8
  store i64 %v2_2ea7, i64* @rax, align 8
  ret i64 %v2_2ea7
}

define i64 @_ZN3org4luaj3vm28LuaValue3modEJPS2_d(i64 %arg1) local_unnamed_addr {
dec_label_pc_2ec0:
  store i64 %arg1, i64* @rdi, align 8
  %v2_2ec4 = load i64, i64* @rdi, align 8
  store i64 %v2_2ec4, i64* @rax, align 8
  ret i64 %v2_2ec4
}

define i64 @_ZN3org4luaj3vm28LuaValue3modEJPS2_i(i64 %arg1) local_unnamed_addr {
dec_label_pc_2ee0:
  store i64 %arg1, i64* @rdi, align 8
  %v2_2ee4 = load i64, i64* @rdi, align 8
  store i64 %v2_2ee4, i64* @rax, align 8
  ret i64 %v2_2ee4
}

define i64 @_ZN3org4luaj3vm28LuaValue7modFromEJPS2_d(i64 %arg1) local_unnamed_addr {
dec_label_pc_2f00:
  store i64 %arg1, i64* @rdi, align 8
  %v2_2f04 = load i64, i64* @rdi, align 8
  store i64 %v2_2f04, i64* @rax, align 8
  ret i64 %v2_2f04
}

define i64 @_ZN3org4luaj3vm28LuaValue2ltEJPS2_S3_(i64 %arg1, i64 %arg2) local_unnamed_addr {
dec_label_pc_2f20:
  store i64 %arg1, i64* @rdi, align 8
  store i64 %arg2, i64* @rdx, align 8
  %v2_2f27 = load i64, i64* @rdi, align 8
  store i64 %v2_2f27, i64* @rax, align 8
  ret i64 %v2_2f27
}

define i64 @_ZN3org4luaj3vm28LuaValue4lt_bEJbPS2_(i64 %arg1, i64 %arg2) local_unnamed_addr {
dec_label_pc_2f40:
  store i64 %arg1, i64* @rdi, align 8
  %v2_2f44 = load i64, i64* @rdi, align 8
  store i64 %v2_2f44, i64* @rax, align 8
  store i64 %v2_2f44, i64* @rdx, align 8
  ret i64 %v2_2f44
}

define i64 @_ZN3org4luaj3vm28LuaValue4lteqEJPS2_S3_(i64 %arg1, i64 %arg2) local_unnamed_addr {
dec_label_pc_2f70:
  store i64 %arg1, i64* @rdi, align 8
  store i64 %arg2, i64* @rdx, align 8
  %v2_2f77 = load i64, i64* @rdi, align 8
  store i64 %v2_2f77, i64* @rax, align 8
  ret i64 %v2_2f77
}

define i64 @_ZN3org4luaj3vm28LuaValue6lteq_bEJbPS2_(i64 %arg1, i64 %arg2) local_unnamed_addr {
dec_label_pc_2f90:
  store i64 %arg1, i64* @rdi, align 8
  %v2_2f94 = load i64, i64* @rdi, align 8
  store i64 %v2_2f94, i64* @rax, align 8
  store i64 %v2_2f94, i64* @rdx, align 8
  ret i64 %v2_2f94
}

define i64 @_ZN3org4luaj3vm28LuaValue2gtEJPS2_S3_(i64 %arg1, i64 %arg2) local_unnamed_addr {
dec_label_pc_2fc0:
  store i64 %arg1, i64* @rdi, align 8
  %v0_2fc4 = load i64, i64* @rdi, align 8
  store i64 %v0_2fc4, i64* @rdx, align 8
  store i64 %arg2, i64* @rax, align 8
  store i64 %arg2, i64* @rdi, align 8
  ret i64 %arg2
}

define i64 @_ZN3org4luaj3vm28LuaValue2gtEJPS2_i(i64 %arg1) local_unnamed_addr {
dec_label_pc_2fe0:
  store i64 %arg1, i64* @rdi, align 8
  %v2_2fe4 = load i64, i64* @rdi, align 8
  store i64 %v2_2fe4, i64* @rax, align 8
  ret i64 %v2_2fe4
}

define i64 @_ZN3org4luaj3vm28LuaValue4gt_bEJbPS2_(i64 %arg1, i64 %arg2) local_unnamed_addr {
dec_label_pc_3000:
  store i64 %arg1, i64* @rdi, align 8
  store i64 %arg2, i64* @rax, align 8
  %v0_3007 = load i64, i64* @rdi, align 8
  store i64 %v0_3007, i64* @rdx, align 8
  store i64 %arg2, i64* @rdi, align 8
  %v0_300d = load i64, i64* inttoptr (i64 12308 to i64*), align 8
  store i64 %v0_300d, i64* @rdx, align 8
  store i64 %arg2, i64* @rdi, align 8
  ret i64 %arg2
}

define i64 @_ZN3org4luaj3vm28LuaValue4gteqEJPS2_S3_(i64 %arg1, i64 %arg2) local_unnamed_addr {
dec_label_pc_3030:
  store i64 %arg1, i64* @rdi, align 8
  %v0_3034 = load i64, i64* @rdi, align 8
  store i64 %v0_3034, i64* @rdx, align 8
  store i64 %arg2, i64* @rax, align 8
  store i64 %arg2, i64* @rdi, align 8
  ret i64 %arg2
}

define i64 @_ZN3org4luaj3vm28LuaValue4gteqEJPS2_d(i64 %arg1) local_unnamed_addr {
dec_label_pc_3050:
  store i64 %arg1, i64* @rdi, align 8
  %v2_3054 = load i64, i64* @rdi, align 8
  store i64 %v2_3054, i64* @rax, align 8
  ret i64 %v2_3054
}

define i64 @_ZN3org4luaj3vm28LuaValue6gteq_bEJbPS2_(i64 %arg1, i64 %arg2) local_unnamed_addr {
dec_label_pc_3070:
  store i64 %arg1, i64* @rdi, align 8
  store i64 %arg2, i64* @rax, align 8
  %v0_3077 = load i64, i64* @rdi, align 8
  store i64 %v0_3077, i64* @rdx, align 8
  store i64 %arg2, i64* @rdi, align 8
  %v0_307d = load i64, i64* inttoptr (i64 12420 to i64*), align 8
  store i64 %v0_307d, i64* @rdx, align 8
  store i64 %arg2, i64* @rdi, align 8
  ret i64 %arg2
}

define i64 @_ZN3org4luaj3vm28LuaValue6gteq_bEJbi(i64 %arg1) local_unnamed_addr {
dec_label_pc_30a0:
  store i64 %arg1, i64* @rdi, align 8
  store i64 0, i64* @rax, align 8
  ret i64 0
}

define i64 @_ZN3org4luaj3vm28LuaValue6gteq_bEJbd(i64 %arg1) local_unnamed_addr {
dec_label_pc_30c0:
  store i64 %arg1, i64* @rdi, align 8
  store i64 0, i64* @rax, align 8
  ret i64 0
}

define i64 @_ZN3org4luaj3vm28LuaValue6concatEJPS2_S3_(i64 %arg1) local_unnamed_addr {
dec_label_pc_30e0:
  store i64 %arg1, i64* @rdi, align 8
  %v2_30e4 = load i64, i64* @rdi, align 8
  store i64 %v2_30e4, i64* @rax, align 8
  ret i64 %v2_30e4
}

define i64 @_ZN3org4luaj3vm28LuaValue8concatToEJPS2_S3_(i64 %arg1, i64 %arg2) local_unnamed_addr {
dec_label_pc_3100:
  store i64 %arg1, i64* @rdi, align 8
  store i64 %arg2, i64* @rax, align 8
  %v0_3107 = load i64, i64* @rdi, align 8
  store i64 %v0_3107, i64* @rdx, align 8
  store i64 %arg2, i64* @rdi, align 8
  ret i64 %arg2
}

define i64 @_ZN3org4luaj3vm28LuaValue8concatToEJPS2_PNS1_9LuaNumberE(i64 %arg1, i64 %arg2) local_unnamed_addr {
dec_label_pc_3120:
  store i64 %arg1, i64* @rdi, align 8
  store i64 %arg2, i64* @rax, align 8
  %v0_3127 = load i64, i64* @rdi, align 8
  store i64 %v0_3127, i64* @rdx, align 8
  store i64 %arg2, i64* @rdi, align 8
  ret i64 %arg2
}

define i64 @_ZN3org4luaj3vm28LuaValue8concatToEJPS2_PNS1_9LuaStringE(i64 %arg1, i64 %arg2) local_unnamed_addr {
dec_label_pc_3140:
  store i64 %arg1, i64* @rdi, align 8
  store i64 %arg2, i64* @rax, align 8
  %v0_3147 = load i64, i64* @rdi, align 8
  store i64 %v0_3147, i64* @rdx, align 8
  store i64 %arg2, i64* @rdi, align 8
  ret i64 %arg2
}

define i64 @"_ZN3org4luaj3vm28LuaValue4and$EJPS2_S3_"(i64 %arg1, i64 %arg2) local_unnamed_addr {
dec_label_pc_3160:
  %rsi.global-to-local = alloca i64, align 8
  store i64 %arg2, i64* %rsi.global-to-local, align 8
  store i64 %arg1, i64* @rdi, align 8
  %v0_3162 = load i64, i64* @rdi, align 8
  %v0_3165 = load i64, i64* %rsi.global-to-local, align 8
  %v4_3175 = trunc i64 %v0_3162 to i8
  %v5_3175 = icmp eq i8 %v4_3175, 0
  %v1_317a = icmp eq i1 %v5_3175, false
  %v4_317a = select i1 %v1_317a, i64 %v0_3165, i64 %v0_3162
  store i64 %v4_317a, i64* @rax, align 8
  ret i64 %v4_317a
}

define i64 @"_ZN3org4luaj3vm28LuaValue3or$EJPS2_S3_"(i64 %arg1, i64 %arg2) local_unnamed_addr {
dec_label_pc_3190:
  store i64 %arg1, i64* @rdi, align 8
  %v0_3195 = load i64, i64* @rdi, align 8
  %v4_31a5 = trunc i64 %v0_3195 to i8
  %v5_31a5 = icmp eq i8 %v4_31a5, 0
  %v1_31aa = icmp eq i1 %v5_31a5, false
  %v4_31aa = select i1 %v1_31aa, i64 %v0_3195, i64 %arg2
  store i64 %v4_31aa, i64* @rax, align 8
  ret i64 %v4_31aa
}

define i64 @_ZN3org4luaj3vm28LuaValue9testfor_bEJbPS2_S3_(i64 %arg1, i64 %arg2, i64 %arg3) local_unnamed_addr {
dec_label_pc_31c0:
  store i64 %arg3, i64* @rdx, align 8
  store i64 %arg1, i64* @rdi, align 8
  %v0_31ca = load i64, i64* @rdx, align 8
  %v2_3209 = urem i64 %v0_31ca, 2
  store i64 %v2_3209, i64* @rax, align 8
  ret i64 %v2_3209
}

define i64 @_ZN3org4luaj3vm28LuaValue8strvalueEJPNS1_9LuaStringEv(i64 %arg1) local_unnamed_addr {
dec_label_pc_3220:
  store i64 %arg1, i64* @rdi, align 8
  store i64 0, i64* @rax, align 8
  ret i64 0
}

define i64 @_ZN3org4luaj3vm28LuaValue11strongvalueEJPS2_v(i64 %arg1) local_unnamed_addr {
dec_label_pc_3240:
  store i64 %arg1, i64* @rdi, align 8
  store i64 %arg1, i64* @rax, align 8
  ret i64 %arg1
}

define i64 @_ZN3org4luaj3vm28LuaValue7metatagEJPS2_S3_(i64 %arg1, i64 %arg2) local_unnamed_addr {
dec_label_pc_3250:
  %rsi.global-to-local = alloca i64, align 8
  store i64 %arg2, i64* %rsi.global-to-local, align 8
  store i64 %arg1, i64* @rdi, align 8
  %v0_3250 = load i64, i64* @rbx, align 8
  %v2_3251 = load i64, i64* @rdi, align 8
  store i64 %v2_3251, i64* @rax, align 8
  %v0_3254 = load i64, i64* %rsi.global-to-local, align 8
  store i64 %v0_3254, i64* @rbx, align 8
  %v1_325d = icmp eq i64 %v2_3251, 0
  br i1 %v1_325d, label %dec_label_pc_3278, label %dec_label_pc_3262

dec_label_pc_3262:                                ; preds = %dec_label_pc_3250
  store i64 %v2_3251, i64* @rdx, align 8
  store i64 %v0_3250, i64* @rbx, align 8
  ret i64 %v2_3251

dec_label_pc_3278:                                ; preds = %dec_label_pc_3250
  %v0_3278 = load i64, i64* inttoptr (i64 12927 to i64*), align 8
  store i64 %v0_3278, i64* @rax, align 8
  store i64 %v0_3250, i64* @rbx, align 8
  ret i64 %v0_3278
}

define i64 @_ZN3org4luaj3vm28LuaValue8onInvokeEJPNS1_7VarargsES4_(i64 %arg1) local_unnamed_addr {
dec_label_pc_3290:
  store i64 %arg1, i64* @rdi, align 8
  %v2_3294 = load i64, i64* @rdi, align 8
  store i64 %v2_3294, i64* @rax, align 8
  ret i64 %v2_3294
}

define i64 @_ZN3org4luaj3vm28LuaValue12initupvalue1EJvPS2_() local_unnamed_addr {
dec_label_pc_32b0:
  %v0_32b0 = load i64, i64* @rax, align 8
  ret i64 %v0_32b0
}

define i64 @"_ZN3org4luaj3vm213LuaValue$None3argEJPNS1_8LuaValueEi"() local_unnamed_addr {
dec_label_pc_32c0:
  %v0_32c0 = load i64, i64* inttoptr (i64 12999 to i64*), align 8
  store i64 %v0_32c0, i64* @rax, align 8
  ret i64 %v0_32c0
}

define i64 @"_ZN3org4luaj3vm213LuaValue$None4nargEJiv"() local_unnamed_addr {
dec_label_pc_32d0:
  store i64 0, i64* @rax, align 8
  ret i64 0
}

define i64 @"_ZN3org4luaj3vm213LuaValue$None4arg1EJPNS1_8LuaValueEv"() local_unnamed_addr {
dec_label_pc_32e0:
  %v0_32e0 = load i64, i64* inttoptr (i64 13031 to i64*), align 8
  store i64 %v0_32e0, i64* @rax, align 8
  ret i64 %v0_32e0
}

define i64 @"_ZN3org4luaj3vm213LuaValue$None9tojstringEJPN4java4lang6StringEv"() local_unnamed_addr {
dec_label_pc_32f0:
  %v0_32f0 = load i64, i64* inttoptr (i64 13047 to i64*), align 8
  store i64 %v0_32f0, i64* @rax, align 8
  ret i64 %v0_32f0
}

define i64 @_ZN3org4luaj3vm29LuaNumber4typeEJiv() local_unnamed_addr {
dec_label_pc_3300:
  store i64 3, i64* @rax, align 8
  ret i64 3
}

define i64 @"_ZN3org4luaj3vm29LuaNumber9typename$EJPN4java4lang6StringEv"() local_unnamed_addr {
dec_label_pc_3310:
  %v0_3310 = load i64, i64* inttoptr (i64 13079 to i64*), align 8
  store i64 %v0_3310, i64* @rax, align 8
  ret i64 %v0_3310
}

define i64 @_ZN3org4luaj3vm29LuaNumber11checknumberEJPS2_v(i64 %arg1) local_unnamed_addr {
dec_label_pc_3320:
  store i64 %arg1, i64* @rdi, align 8
  store i64 %arg1, i64* @rax, align 8
  ret i64 %arg1
}

define i64 @_ZN3org4luaj3vm29LuaNumber9optnumberEJPS2_S3_(i64 %arg1) local_unnamed_addr {
dec_label_pc_3330:
  store i64 %arg1, i64* @rdi, align 8
  store i64 %arg1, i64* @rax, align 8
  ret i64 %arg1
}

define i64 @_ZN3org4luaj3vm29LuaNumber8tonumberEJPNS1_8LuaValueEv(i64 %arg1) local_unnamed_addr {
dec_label_pc_3340:
  store i64 %arg1, i64* @rdi, align 8
  store i64 %arg1, i64* @rax, align 8
  ret i64 %arg1
}

define i64 @_ZN3org4luaj3vm29LuaNumber12getmetatableEJPNS1_8LuaValueEv() local_unnamed_addr {
dec_label_pc_3350:
  %v0_3350 = load i64, i64* inttoptr (i64 13143 to i64*), align 8
  store i64 %v0_3350, i64* @rax, align 8
  ret i64 %v0_3350
}

define i64 @_ZN3org4luaj3vm29LuaNumber6concatEJPNS1_8LuaValueES4_(i64 %arg1, i64 %arg2) local_unnamed_addr {
dec_label_pc_3360:
  store i64 %arg1, i64* @rdi, align 8
  store i64 %arg2, i64* @rax, align 8
  %v0_3367 = load i64, i64* @rdi, align 8
  store i64 %v0_3367, i64* @rdx, align 8
  store i64 %arg2, i64* @rdi, align 8
  ret i64 %arg2
}

define i64 @_ZN3org4luaj3vm29LuaNumber8concatToEJPNS1_8LuaValueEPS2_(i64 %arg1, i64 %arg2) local_unnamed_addr {
dec_label_pc_3380:
  store i64 %arg1, i64* @rdi, align 8
  store i64 %arg2, i64* @rax, align 8
  store i64 %arg2, i64* @rdx, align 8
  ret i64 %arg2
}

define i64 @_ZN3org4luaj3vm29LuaNumber8concatToEJPNS1_8LuaValueEPNS1_9LuaStringE(i64 %arg1, i64 %arg2) local_unnamed_addr {
dec_label_pc_33c0:
  store i64 %arg1, i64* @rdi, align 8
  %v2_33c1 = load i64, i64* @rdi, align 8
  store i64 %v2_33c1, i64* @rax, align 8
  store i64 %v2_33c1, i64* @rdx, align 8
  ret i64 %v2_33c1
}

define i64 @"_ZN3org4luaj3vm218WeakTable$WeakSlot4restEJPNS1_13LuaTable$SlotEv"(i64 %arg1) local_unnamed_addr {
dec_label_pc_33e0:
  store i64 %arg1, i64* @rdi, align 8
  %v1_33e0 = add i64 %arg1, 24
  %v2_33e0 = inttoptr i64 %v1_33e0 to i64*
  %v3_33e0 = load i64, i64* %v2_33e0, align 8
  store i64 %v3_33e0, i64* @rax, align 8
  ret i64 %v3_33e0
}

define i64 @"_ZN3org4luaj3vm219WeakTable$WeakValue4typeEJiv"(i64 %arg1) local_unnamed_addr {
dec_label_pc_33f0:
  store i64 %arg1, i64* @rdi, align 8
  %v2_33f4 = load i64, i64* @rdi, align 8
  store i64 %v2_33f4, i64* @rax, align 8
  %v0_33f7 = load i64, i64* inttoptr (i64 13310 to i64*), align 8
  store i64 %v0_33f7, i64* @rdx, align 8
  store i64 0, i64* @rax, align 8
  ret i64 0
}

define i64 @"_ZN3org4luaj3vm219WeakTable$WeakValue9typename$EJPN4java4lang6StringEv"(i64 %arg1) local_unnamed_addr {
dec_label_pc_3420:
  store i64 %arg1, i64* @rdi, align 8
  %v2_3424 = load i64, i64* @rdi, align 8
  store i64 %v2_3424, i64* @rax, align 8
  %v0_3427 = load i64, i64* inttoptr (i64 13358 to i64*), align 8
  store i64 %v0_3427, i64* @rdx, align 8
  store i64 0, i64* @rax, align 8
  ret i64 0
}

define i64 @_ZN3org4luaj3vm29WeakTable11useWeakKeysEJbv(i64 %arg1) local_unnamed_addr {
dec_label_pc_3450:
  store i64 %arg1, i64* @rdi, align 8
  %v1_3450 = add i64 %arg1, 8
  %v2_3450 = inttoptr i64 %v1_3450 to i8*
  %v3_3450 = load i8, i8* %v2_3450, align 1
  %v4_3450 = zext i8 %v3_3450 to i64
  store i64 %v4_3450, i64* @rax, align 8
  ret i64 %v4_3450
}

define i64 @_ZN3org4luaj3vm29WeakTable13useWeakValuesEJbv(i64 %arg1) local_unnamed_addr {
dec_label_pc_3460:
  store i64 %arg1, i64* @rdi, align 8
  %v1_3460 = add i64 %arg1, 9
  %v2_3460 = inttoptr i64 %v1_3460 to i8*
  %v3_3460 = load i8, i8* %v2_3460, align 1
  %v4_3460 = zext i8 %v3_3460 to i64
  store i64 %v4_3460, i64* @rax, align 8
  ret i64 %v4_3460
}

define i64 @_ZN3org4luaj3vm29WeakTable10toLuaValueEJPNS1_8LuaValueEv(i64 %arg1) local_unnamed_addr {
dec_label_pc_3470:
  store i64 %arg1, i64* @rdi, align 8
  %v1_3470 = add i64 %arg1, 16
  %v2_3470 = inttoptr i64 %v1_3470 to i64*
  %v3_3470 = load i64, i64* %v2_3470, align 8
  store i64 %v3_3470, i64* @rax, align 8
  ret i64 %v3_3470
}

define i64 @"_ZN3org4luaj3vm221WeakTable$WeakKeySlot3setEJPNS1_13LuaTable$SlotEPNS1_8LuaValueE"(i64 %arg1, i64 %arg2) local_unnamed_addr {
dec_label_pc_3480:
  store i64 %arg1, i64* @rdi, align 8
  store i64 %arg1, i64* @rax, align 8
  %v2_3483 = add i64 %arg1, 16
  %v3_3483 = inttoptr i64 %v2_3483 to i64*
  store i64 %arg2, i64* %v3_3483, align 8
  %v0_3487 = load i64, i64* @rax, align 8
  ret i64 %v0_3487
}

define i64 @_ZN3org4luaj3vm210LuaBoolean4typeEJiv() local_unnamed_addr {
dec_label_pc_3490:
  store i64 1, i64* @rax, align 8
  ret i64 1
}

define i64 @"_ZN3org4luaj3vm210LuaBoolean9typename$EJPN4java4lang6StringEv"() local_unnamed_addr {
dec_label_pc_34a0:
  %v0_34a0 = load i64, i64* inttoptr (i64 13479 to i64*), align 8
  store i64 %v0_34a0, i64* @rax, align 8
  ret i64 %v0_34a0
}

define i64 @"_ZN3org4luaj3vm210LuaBoolean4not$EJPNS1_8LuaValueEv"(i64 %arg1) local_unnamed_addr {
dec_label_pc_34b0:
  store i64 %arg1, i64* @rdi, align 8
  %v1_34b0 = add i64 %arg1, 8
  %v2_34b0 = inttoptr i64 %v1_34b0 to i8*
  %v3_34b0 = load i8, i8* %v2_34b0, align 1
  %v10_34b0 = icmp eq i8 %v3_34b0, 0
  %v0_34b4 = load i64, i64* inttoptr (i64 13499 to i64*), align 8
  store i64 %v0_34b4, i64* @rax, align 8
  %v2_34bb = load i64, i64* inttoptr (i64 13507 to i64*), align 8
  %v3_34bb = select i1 %v10_34b0, i64 %v2_34bb, i64 %v0_34b4
  store i64 %v3_34bb, i64* @rax, align 8
  ret i64 %v3_34bb
}

define i64 @_ZN3org4luaj3vm210LuaBoolean9tojstringEJPN4java4lang6StringEv(i64 %arg1) local_unnamed_addr {
dec_label_pc_34d0:
  store i64 %arg1, i64* @rdi, align 8
  %v1_34d0 = add i64 %arg1, 8
  %v2_34d0 = inttoptr i64 %v1_34d0 to i8*
  %v3_34d0 = load i8, i8* %v2_34d0, align 1
  %v10_34d0 = icmp eq i8 %v3_34d0, 0
  %v0_34d4 = load i64, i64* inttoptr (i64 13531 to i64*), align 8
  store i64 %v0_34d4, i64* @rax, align 8
  %v2_34db = load i64, i64* inttoptr (i64 13539 to i64*), align 8
  %v3_34db = select i1 %v10_34d0, i64 %v2_34db, i64 %v0_34d4
  store i64 %v3_34db, i64* @rax, align 8
  ret i64 %v3_34db
}

define i64 @_ZN3org4luaj3vm210LuaBoolean10optbooleanEJbb(i64 %arg1) local_unnamed_addr {
dec_label_pc_34f0:
  store i64 %arg1, i64* @rdi, align 8
  %v1_34f0 = add i64 %arg1, 8
  %v2_34f0 = inttoptr i64 %v1_34f0 to i8*
  %v3_34f0 = load i8, i8* %v2_34f0, align 1
  %v4_34f0 = zext i8 %v3_34f0 to i64
  store i64 %v4_34f0, i64* @rax, align 8
  ret i64 %v4_34f0
}

define i64 @_ZN3org4luaj3vm210LuaBoolean12checkbooleanEJbv(i64 %arg1) local_unnamed_addr {
dec_label_pc_3500:
  store i64 %arg1, i64* @rdi, align 8
  %v1_3500 = add i64 %arg1, 8
  %v2_3500 = inttoptr i64 %v1_3500 to i8*
  %v3_3500 = load i8, i8* %v2_3500, align 1
  %v4_3500 = zext i8 %v3_3500 to i64
  store i64 %v4_3500, i64* @rax, align 8
  ret i64 %v4_3500
}

define i64 @_ZN3org4luaj3vm210LuaBoolean12getmetatableEJPNS1_8LuaValueEv() local_unnamed_addr {
dec_label_pc_3510:
  %v0_3510 = load i64, i64* inttoptr (i64 13591 to i64*), align 8
  store i64 %v0_3510, i64* @rax, align 8
  ret i64 %v0_3510
}

define i64 @"_ZN3org4luaj3vm219Varargs$PairVarargs4nargEJiv"(i64 %arg1) local_unnamed_addr {
dec_label_pc_3520:
  store i64 %arg1, i64* @rdi, align 8
  %v0_3524 = load i64, i64* @rdi, align 8
  %v1_3524 = add i64 %v0_3524, 16
  %v2_3524 = inttoptr i64 %v1_3524 to i64*
  %v3_3524 = load i64, i64* %v2_3524, align 8
  store i64 %v3_3524, i64* @rdi, align 8
  %v1_3528 = inttoptr i64 %v3_3524 to i64*
  %v2_3528 = load i64, i64* %v1_3528, align 8
  %v2_352e = add i64 %v2_3528, 1
  %v17_352e = and i64 %v2_352e, 4294967295
  store i64 %v17_352e, i64* @rax, align 8
  ret i64 %v17_352e
}

define i64 @"_ZN3org4luaj3vm219Varargs$PairVarargs4arg1EJPNS1_8LuaValueEv"(i64 %arg1) local_unnamed_addr {
dec_label_pc_3540:
  store i64 %arg1, i64* @rdi, align 8
  %v1_3540 = add i64 %arg1, 8
  %v2_3540 = inttoptr i64 %v1_3540 to i64*
  %v3_3540 = load i64, i64* %v2_3540, align 8
  store i64 %v3_3540, i64* @rax, align 8
  ret i64 %v3_3540
}

define i64 @_ZN3org4luaj3vm27Varargs4evalEJPS2_v(i64 %arg1) local_unnamed_addr {
dec_label_pc_3550:
  store i64 %arg1, i64* @rdi, align 8
  store i64 %arg1, i64* @rax, align 8
  ret i64 %arg1
}

define i64 @_ZN3org4luaj3vm27Varargs4typeEJii(i64 %arg1) local_unnamed_addr {
dec_label_pc_3560:
  store i64 %arg1, i64* @rdi, align 8
  %v2_3564 = load i64, i64* @rdi, align 8
  store i64 %v2_3564, i64* @rax, align 8
  store i64 %v2_3564, i64* @rdx, align 8
  ret i64 %v2_3564
}

define i64 @_ZN3org4luaj3vm27Varargs5isnilEJbi(i64 %arg1) local_unnamed_addr {
dec_label_pc_3580:
  store i64 %arg1, i64* @rdi, align 8
  %v2_3584 = load i64, i64* @rdi, align 8
  store i64 %v2_3584, i64* @rax, align 8
  store i64 %v2_3584, i64* @rdx, align 8
  ret i64 %v2_3584
}

define i64 @_ZN3org4luaj3vm27Varargs10isfunctionEJbi(i64 %arg1) local_unnamed_addr {
dec_label_pc_35a0:
  store i64 %arg1, i64* @rdi, align 8
  %v2_35a4 = load i64, i64* @rdi, align 8
  store i64 %v2_35a4, i64* @rax, align 8
  store i64 %v2_35a4, i64* @rdx, align 8
  ret i64 %v2_35a4
}

define i64 @_ZN3org4luaj3vm27Varargs8isnumberEJbi(i64 %arg1) local_unnamed_addr {
dec_label_pc_35c0:
  store i64 %arg1, i64* @rdi, align 8
  %v2_35c4 = load i64, i64* @rdi, align 8
  store i64 %v2_35c4, i64* @rax, align 8
  store i64 %v2_35c4, i64* @rdx, align 8
  ret i64 %v2_35c4
}

define i64 @_ZN3org4luaj3vm27Varargs8isstringEJbi(i64 %arg1) local_unnamed_addr {
dec_label_pc_35e0:
  store i64 %arg1, i64* @rdi, align 8
  %v2_35e4 = load i64, i64* @rdi, align 8
  store i64 %v2_35e4, i64* @rax, align 8
  store i64 %v2_35e4, i64* @rdx, align 8
  ret i64 %v2_35e4
}

define i64 @_ZN3org4luaj3vm27Varargs7istableEJbi(i64 %arg1) local_unnamed_addr {
dec_label_pc_3600:
  store i64 %arg1, i64* @rdi, align 8
  %v2_3604 = load i64, i64* @rdi, align 8
  store i64 %v2_3604, i64* @rax, align 8
  store i64 %v2_3604, i64* @rdx, align 8
  ret i64 %v2_3604
}

define i64 @_ZN3org4luaj3vm27Varargs8isthreadEJbi(i64 %arg1) local_unnamed_addr {
dec_label_pc_3620:
  store i64 %arg1, i64* @rdi, align 8
  %v2_3624 = load i64, i64* @rdi, align 8
  store i64 %v2_3624, i64* @rax, align 8
  store i64 %v2_3624, i64* @rdx, align 8
  ret i64 %v2_3624
}

define i64 @_ZN3org4luaj3vm27Varargs10isuserdataEJbi(i64 %arg1) local_unnamed_addr {
dec_label_pc_3640:
  store i64 %arg1, i64* @rdi, align 8
  %v2_3644 = load i64, i64* @rdi, align 8
  store i64 %v2_3644, i64* @rax, align 8
  store i64 %v2_3644, i64* @rdx, align 8
  ret i64 %v2_3644
}

define i64 @_ZN3org4luaj3vm27Varargs10optbooleanEJbib(i64 %arg1, i64 %arg2, i64 %arg3) local_unnamed_addr {
dec_label_pc_3660:
  store i64 %arg3, i64* @rdx, align 8
  store i64 %arg1, i64* @rdi, align 8
  %v2_3661 = load i64, i64* @rdi, align 8
  store i64 %v2_3661, i64* @rax, align 8
  store i64 %v2_3661, i64* @rdx, align 8
  ret i64 %v2_3661
}

define i64 @_ZN3org4luaj3vm27Varargs10optclosureEJPNS1_10LuaClosureEiS4_(i64 %arg1, i64 %arg2, i64 %arg3) local_unnamed_addr {
dec_label_pc_3680:
  store i64 %arg3, i64* @rdx, align 8
  store i64 %arg1, i64* @rdi, align 8
  %v2_3681 = load i64, i64* @rdi, align 8
  store i64 %v2_3681, i64* @rax, align 8
  store i64 %v2_3681, i64* @rcx, align 8
  ret i64 %v2_3681
}

define i64 @_ZN3org4luaj3vm27Varargs9optdoubleEJdid(i64 %arg1) local_unnamed_addr {
dec_label_pc_36a0:
  %xmm0.global-to-local = alloca i128, align 8
  store i64 %arg1, i64* @rdi, align 8
  %v2_36a4 = load i64, i64* @rdi, align 8
  store i64 %v2_36a4, i64* @rax, align 8
  %v0_36a7 = load i128, i128* %xmm0.global-to-local, align 8
  %v1_36a7 = call i64 @__asm_movsd.7465(i128 %v0_36a7)
  %v2_36b0 = load i64, i64* @rdi, align 8
  store i64 %v2_36b0, i64* @rdx, align 8
  %v0_36b3 = load i64, i64* @rax, align 8
  store i64 %v0_36b3, i64* @rdi, align 8
  %v4_36b6 = call i128 @__asm_movsd(i64 %v1_36a7)
  store i128 %v4_36b6, i128* %xmm0.global-to-local, align 8
  %v0_36c6 = load i64, i64* @rax, align 8
  ret i64 %v0_36c6
}

define i64 @_ZN3org4luaj3vm27Varargs11optfunctionEJPNS1_11LuaFunctionEiS4_(i64 %arg1, i64 %arg2, i64 %arg3) local_unnamed_addr {
dec_label_pc_36d0:
  store i64 %arg3, i64* @rdx, align 8
  store i64 %arg1, i64* @rdi, align 8
  %v2_36d1 = load i64, i64* @rdi, align 8
  store i64 %v2_36d1, i64* @rax, align 8
  store i64 %v2_36d1, i64* @rcx, align 8
  ret i64 %v2_36d1
}

define i64 @_ZN3org4luaj3vm27Varargs6optintEJiii(i64 %arg1, i64 %arg2, i64 %arg3) local_unnamed_addr {
dec_label_pc_36f0:
  store i64 %arg3, i64* @rdx, align 8
  store i64 %arg1, i64* @rdi, align 8
  %v2_36f1 = load i64, i64* @rdi, align 8
  store i64 %v2_36f1, i64* @rax, align 8
  store i64 %v2_36f1, i64* @rcx, align 8
  ret i64 %v2_36f1
}

define i64 @_ZN3org4luaj3vm27Varargs10optintegerEJPNS1_10LuaIntegerEiS4_(i64 %arg1, i64 %arg2, i64 %arg3) local_unnamed_addr {
dec_label_pc_3710:
  store i64 %arg3, i64* @rdx, align 8
  store i64 %arg1, i64* @rdi, align 8
  %v2_3711 = load i64, i64* @rdi, align 8
  store i64 %v2_3711, i64* @rax, align 8
  store i64 %v2_3711, i64* @rcx, align 8
  ret i64 %v2_3711
}

define i64 @_ZN3org4luaj3vm27Varargs7optlongEJxix(i64 %arg1, i64 %arg2, i64 %arg3) local_unnamed_addr {
dec_label_pc_3730:
  store i64 %arg3, i64* @rdx, align 8
  store i64 %arg1, i64* @rdi, align 8
  %v2_3731 = load i64, i64* @rdi, align 8
  store i64 %v2_3731, i64* @rax, align 8
  store i64 %v2_3731, i64* @rcx, align 8
  ret i64 %v2_3731
}

define i64 @_ZN3org4luaj3vm27Varargs9optnumberEJPNS1_9LuaNumberEiS4_(i64 %arg1, i64 %arg2, i64 %arg3) local_unnamed_addr {
dec_label_pc_3750:
  store i64 %arg3, i64* @rdx, align 8
  store i64 %arg1, i64* @rdi, align 8
  %v2_3751 = load i64, i64* @rdi, align 8
  store i64 %v2_3751, i64* @rax, align 8
  store i64 %v2_3751, i64* @rcx, align 8
  ret i64 %v2_3751
}

define i64 @_ZN3org4luaj3vm27Varargs10optjstringEJPN4java4lang6StringEiS6_(i64 %arg1, i64 %arg2, i64 %arg3) local_unnamed_addr {
dec_label_pc_3770:
  store i64 %arg3, i64* @rdx, align 8
  store i64 %arg1, i64* @rdi, align 8
  %v2_3771 = load i64, i64* @rdi, align 8
  store i64 %v2_3771, i64* @rax, align 8
  store i64 %v2_3771, i64* @rcx, align 8
  ret i64 %v2_3771
}

define i64 @_ZN3org4luaj3vm27Varargs9optstringEJPNS1_9LuaStringEiS4_(i64 %arg1, i64 %arg2, i64 %arg3) local_unnamed_addr {
dec_label_pc_3790:
  store i64 %arg3, i64* @rdx, align 8
  store i64 %arg1, i64* @rdi, align 8
  %v2_3791 = load i64, i64* @rdi, align 8
  store i64 %v2_3791, i64* @rax, align 8
  store i64 %v2_3791, i64* @rcx, align 8
  ret i64 %v2_3791
}

define i64 @_ZN3org4luaj3vm27Varargs8opttableEJPNS1_8LuaTableEiS4_(i64 %arg1, i64 %arg2, i64 %arg3) local_unnamed_addr {
dec_label_pc_37b0:
  store i64 %arg3, i64* @rdx, align 8
  store i64 %arg1, i64* @rdi, align 8
  %v2_37b1 = load i64, i64* @rdi, align 8
  store i64 %v2_37b1, i64* @rax, align 8
  store i64 %v2_37b1, i64* @rcx, align 8
  ret i64 %v2_37b1
}

define i64 @_ZN3org4luaj3vm27Varargs9optthreadEJPNS1_9LuaThreadEiS4_(i64 %arg1, i64 %arg2, i64 %arg3) local_unnamed_addr {
dec_label_pc_37d0:
  store i64 %arg3, i64* @rdx, align 8
  store i64 %arg1, i64* @rdi, align 8
  %v2_37d1 = load i64, i64* @rdi, align 8
  store i64 %v2_37d1, i64* @rax, align 8
  store i64 %v2_37d1, i64* @rcx, align 8
  ret i64 %v2_37d1
}

define i64 @_ZN3org4luaj3vm27Varargs11optuserdataEJPN4java4lang6ObjectEiS6_(i64 %arg1, i64 %arg2, i64 %arg3) local_unnamed_addr {
dec_label_pc_37f0:
  store i64 %arg3, i64* @rdx, align 8
  store i64 %arg1, i64* @rdi, align 8
  %v2_37f1 = load i64, i64* @rdi, align 8
  store i64 %v2_37f1, i64* @rax, align 8
  store i64 %v2_37f1, i64* @rcx, align 8
  ret i64 %v2_37f1
}

define i64 @_ZN3org4luaj3vm27Varargs11optuserdataEJPN4java4lang6ObjectEiPNS4_5ClassES6_(i64 %arg1, i64 %arg2, i64 %arg3, i64 %arg4) local_unnamed_addr {
dec_label_pc_3810:
  store i64 %arg4, i64* @rcx, align 8
  store i64 %arg3, i64* @rdx, align 8
  store i64 %arg1, i64* @rdi, align 8
  %v0_3812 = load i64, i64* @rcx, align 8
  %v2_381c = load i64, i64* @rdi, align 8
  store i64 %v2_381c, i64* @rax, align 8
  store i64 %v0_3812, i64* @rdx, align 8
  ret i64 %v2_381c
}

define i64 @_ZN3org4luaj3vm27Varargs12checkbooleanEJbi(i64 %arg1) local_unnamed_addr {
dec_label_pc_3840:
  store i64 %arg1, i64* @rdi, align 8
  %v2_3844 = load i64, i64* @rdi, align 8
  store i64 %v2_3844, i64* @rax, align 8
  store i64 %v2_3844, i64* @rdx, align 8
  ret i64 %v2_3844
}

define i64 @_ZN3org4luaj3vm27Varargs12checkclosureEJPNS1_10LuaClosureEi(i64 %arg1) local_unnamed_addr {
dec_label_pc_3860:
  store i64 %arg1, i64* @rdi, align 8
  %v2_3864 = load i64, i64* @rdi, align 8
  store i64 %v2_3864, i64* @rax, align 8
  store i64 %v2_3864, i64* @rdx, align 8
  ret i64 %v2_3864
}

define i64 @_ZN3org4luaj3vm27Varargs11checkdoubleEJdi(i64 %arg1) local_unnamed_addr {
dec_label_pc_3880:
  store i64 %arg1, i64* @rdi, align 8
  %v2_3884 = load i64, i64* @rdi, align 8
  store i64 %v2_3884, i64* @rax, align 8
  store i64 %v2_3884, i64* @rdx, align 8
  ret i64 %v2_3884
}

define i64 @_ZN3org4luaj3vm27Varargs13checkfunctionEJPNS1_11LuaFunctionEi(i64 %arg1) local_unnamed_addr {
dec_label_pc_38b0:
  store i64 %arg1, i64* @rdi, align 8
  %v2_38b4 = load i64, i64* @rdi, align 8
  store i64 %v2_38b4, i64* @rax, align 8
  store i64 %v2_38b4, i64* @rdx, align 8
  ret i64 %v2_38b4
}

define i64 @_ZN3org4luaj3vm27Varargs8checkintEJii(i64 %arg1) local_unnamed_addr {
dec_label_pc_38d0:
  store i64 %arg1, i64* @rdi, align 8
  %v2_38d4 = load i64, i64* @rdi, align 8
  store i64 %v2_38d4, i64* @rax, align 8
  store i64 %v2_38d4, i64* @rdx, align 8
  ret i64 %v2_38d4
}

define i64 @_ZN3org4luaj3vm27Varargs12checkintegerEJPNS1_10LuaIntegerEi(i64 %arg1) local_unnamed_addr {
dec_label_pc_3900:
  store i64 %arg1, i64* @rdi, align 8
  %v2_3904 = load i64, i64* @rdi, align 8
  store i64 %v2_3904, i64* @rax, align 8
  store i64 %v2_3904, i64* @rdx, align 8
  ret i64 %v2_3904
}

define i64 @_ZN3org4luaj3vm27Varargs9checklongEJxi(i64 %arg1) local_unnamed_addr {
dec_label_pc_3920:
  store i64 %arg1, i64* @rdi, align 8
  %v2_3924 = load i64, i64* @rdi, align 8
  store i64 %v2_3924, i64* @rax, align 8
  store i64 %v2_3924, i64* @rdx, align 8
  ret i64 %v2_3924
}

define i64 @_ZN3org4luaj3vm27Varargs11checknumberEJPNS1_9LuaNumberEi(i64 %arg1) local_unnamed_addr {
dec_label_pc_3950:
  store i64 %arg1, i64* @rdi, align 8
  %v2_3954 = load i64, i64* @rdi, align 8
  store i64 %v2_3954, i64* @rax, align 8
  store i64 %v2_3954, i64* @rdx, align 8
  ret i64 %v2_3954
}

define i64 @_ZN3org4luaj3vm27Varargs12checkjstringEJPN4java4lang6StringEi(i64 %arg1) local_unnamed_addr {
dec_label_pc_3970:
  store i64 %arg1, i64* @rdi, align 8
  %v2_3974 = load i64, i64* @rdi, align 8
  store i64 %v2_3974, i64* @rax, align 8
  store i64 %v2_3974, i64* @rdx, align 8
  ret i64 %v2_3974
}

define i64 @_ZN3org4luaj3vm27Varargs11checkstringEJPNS1_9LuaStringEi(i64 %arg1) local_unnamed_addr {
dec_label_pc_3990:
  store i64 %arg1, i64* @rdi, align 8
  %v2_3994 = load i64, i64* @rdi, align 8
  store i64 %v2_3994, i64* @rax, align 8
  store i64 %v2_3994, i64* @rdx, align 8
  ret i64 %v2_3994
}

define i64 @_ZN3org4luaj3vm27Varargs10checktableEJPNS1_8LuaTableEi(i64 %arg1) local_unnamed_addr {
dec_label_pc_39b0:
  store i64 %arg1, i64* @rdi, align 8
  %v2_39b4 = load i64, i64* @rdi, align 8
  store i64 %v2_39b4, i64* @rax, align 8
  store i64 %v2_39b4, i64* @rdx, align 8
  ret i64 %v2_39b4
}

define i64 @_ZN3org4luaj3vm27Varargs11checkthreadEJPNS1_9LuaThreadEi(i64 %arg1) local_unnamed_addr {
dec_label_pc_39d0:
  store i64 %arg1, i64* @rdi, align 8
  %v2_39d4 = load i64, i64* @rdi, align 8
  store i64 %v2_39d4, i64* @rax, align 8
  store i64 %v2_39d4, i64* @rdx, align 8
  ret i64 %v2_39d4
}

define i64 @_ZN3org4luaj3vm27Varargs13checkuserdataEJPN4java4lang6ObjectEi(i64 %arg1) local_unnamed_addr {
dec_label_pc_39f0:
  store i64 %arg1, i64* @rdi, align 8
  %v2_39f4 = load i64, i64* @rdi, align 8
  store i64 %v2_39f4, i64* @rax, align 8
  store i64 %v2_39f4, i64* @rdx, align 8
  ret i64 %v2_39f4
}

define i64 @_ZN3org4luaj3vm27Varargs13checkuserdataEJPN4java4lang6ObjectEiPNS4_5ClassE(i64 %arg1, i64 %arg2, i64 %arg3) local_unnamed_addr {
dec_label_pc_3a10:
  store i64 %arg3, i64* @rdx, align 8
  store i64 %arg1, i64* @rdi, align 8
  %v2_3a11 = load i64, i64* @rdi, align 8
  store i64 %v2_3a11, i64* @rax, align 8
  store i64 %v2_3a11, i64* @rcx, align 8
  ret i64 %v2_3a11
}

define i64 @_ZN3org4luaj3vm27Varargs11checknotnilEJPNS1_8LuaValueEi(i64 %arg1) local_unnamed_addr {
dec_label_pc_3a30:
  store i64 %arg1, i64* @rdi, align 8
  %v2_3a34 = load i64, i64* @rdi, align 8
  store i64 %v2_3a34, i64* @rax, align 8
  store i64 %v2_3a34, i64* @rdx, align 8
  ret i64 %v2_3a34
}

define i64 @_ZN3org4luaj3vm27Varargs9tobooleanEJbi(i64 %arg1) local_unnamed_addr {
dec_label_pc_3a50:
  store i64 %arg1, i64* @rdi, align 8
  %v2_3a54 = load i64, i64* @rdi, align 8
  store i64 %v2_3a54, i64* @rax, align 8
  store i64 %v2_3a54, i64* @rdx, align 8
  ret i64 %v2_3a54
}

define i64 @_ZN3org4luaj3vm27Varargs6tobyteEJci(i64 %arg1) local_unnamed_addr {
dec_label_pc_3a70:
  store i64 %arg1, i64* @rdi, align 8
  %v2_3a74 = load i64, i64* @rdi, align 8
  store i64 %v2_3a74, i64* @rax, align 8
  store i64 %v2_3a74, i64* @rdx, align 8
  ret i64 %v2_3a74
}

define i64 @_ZN3org4luaj3vm27Varargs6tocharEJwi(i64 %arg1) local_unnamed_addr {
dec_label_pc_3a90:
  store i64 %arg1, i64* @rdi, align 8
  %v2_3a94 = load i64, i64* @rdi, align 8
  store i64 %v2_3a94, i64* @rax, align 8
  store i64 %v2_3a94, i64* @rdx, align 8
  ret i64 %v2_3a94
}

define i64 @_ZN3org4luaj3vm27Varargs8todoubleEJdi(i64 %arg1) local_unnamed_addr {
dec_label_pc_3ab0:
  store i64 %arg1, i64* @rdi, align 8
  %v2_3ab4 = load i64, i64* @rdi, align 8
  store i64 %v2_3ab4, i64* @rax, align 8
  store i64 %v2_3ab4, i64* @rdx, align 8
  ret i64 %v2_3ab4
}

define i64 @_ZN3org4luaj3vm27Varargs7tofloatEJfi(i64 %arg1) local_unnamed_addr {
dec_label_pc_3ad0:
  store i64 %arg1, i64* @rdi, align 8
  %v2_3ad4 = load i64, i64* @rdi, align 8
  store i64 %v2_3ad4, i64* @rax, align 8
  store i64 %v2_3ad4, i64* @rdx, align 8
  ret i64 %v2_3ad4
}

define i64 @_ZN3org4luaj3vm27Varargs5tointEJii(i64 %arg1) local_unnamed_addr {
dec_label_pc_3af0:
  store i64 %arg1, i64* @rdi, align 8
  %v2_3af4 = load i64, i64* @rdi, align 8
  store i64 %v2_3af4, i64* @rax, align 8
  store i64 %v2_3af4, i64* @rdx, align 8
  ret i64 %v2_3af4
}

define i64 @_ZN3org4luaj3vm27Varargs6tolongEJxi(i64 %arg1) local_unnamed_addr {
dec_label_pc_3b10:
  store i64 %arg1, i64* @rdi, align 8
  %v2_3b14 = load i64, i64* @rdi, align 8
  store i64 %v2_3b14, i64* @rax, align 8
  store i64 %v2_3b14, i64* @rdx, align 8
  ret i64 %v2_3b14
}

define i64 @_ZN3org4luaj3vm27Varargs9tojstringEJPN4java4lang6StringEi(i64 %arg1) local_unnamed_addr {
dec_label_pc_3b30:
  store i64 %arg1, i64* @rdi, align 8
  %v2_3b34 = load i64, i64* @rdi, align 8
  store i64 %v2_3b34, i64* @rax, align 8
  store i64 %v2_3b34, i64* @rdx, align 8
  ret i64 %v2_3b34
}

define i64 @_ZN3org4luaj3vm27Varargs7toshortEJsi(i64 %arg1) local_unnamed_addr {
dec_label_pc_3b50:
  store i64 %arg1, i64* @rdi, align 8
  %v2_3b54 = load i64, i64* @rdi, align 8
  store i64 %v2_3b54, i64* @rax, align 8
  store i64 %v2_3b54, i64* @rdx, align 8
  ret i64 %v2_3b54
}

define i64 @_ZN3org4luaj3vm27Varargs10touserdataEJPN4java4lang6ObjectEi(i64 %arg1) local_unnamed_addr {
dec_label_pc_3b70:
  store i64 %arg1, i64* @rdi, align 8
  %v2_3b74 = load i64, i64* @rdi, align 8
  store i64 %v2_3b74, i64* @rax, align 8
  store i64 %v2_3b74, i64* @rdx, align 8
  ret i64 %v2_3b74
}

define i64 @_ZN3org4luaj3vm27Varargs10touserdataEJPN4java4lang6ObjectEiPNS4_5ClassE(i64 %arg1, i64 %arg2, i64 %arg3) local_unnamed_addr {
dec_label_pc_3b90:
  store i64 %arg3, i64* @rdx, align 8
  store i64 %arg1, i64* @rdi, align 8
  %v2_3b91 = load i64, i64* @rdi, align 8
  store i64 %v2_3b91, i64* @rax, align 8
  store i64 %v2_3b91, i64* @rcx, align 8
  ret i64 %v2_3b91
}

define i64 @_ZN3org4luaj3vm27Varargs8toStringEJPN4java4lang6StringEv(i64 %arg1) local_unnamed_addr {
dec_label_pc_3bb0:
  store i64 %arg1, i64* @rdi, align 8
  %v2_3bb4 = load i64, i64* @rdi, align 8
  store i64 %v2_3bb4, i64* @rax, align 8
  ret i64 %v2_3bb4
}

define i64 @"_ZN3org4luaj3vm220Varargs$ArrayVarargs4nargEJiv"(i64 %arg1) local_unnamed_addr {
dec_label_pc_3bd0:
  store i64 %arg1, i64* @rdi, align 8
  %v0_3bd0 = load i64, i64* @rbx, align 8
  %v0_3bd1 = load i64, i64* @rdi, align 8
  %v1_3bd1 = add i64 %v0_3bd1, 8
  %v2_3bd1 = inttoptr i64 %v1_3bd1 to i64*
  %v3_3bd1 = load i64, i64* %v2_3bd1, align 8
  store i64 %v3_3bd1, i64* @rax, align 8
  %v1_3bd5 = add i64 %v0_3bd1, 16
  %v2_3bd5 = inttoptr i64 %v1_3bd5 to i64*
  %v3_3bd5 = load i64, i64* %v2_3bd5, align 8
  store i64 %v3_3bd5, i64* @rdi, align 8
  %v1_3bd9 = add i64 %v3_3bd1, 8
  %v2_3bd9 = inttoptr i64 %v1_3bd9 to i32*
  %v3_3bd9 = load i32, i32* %v2_3bd9, align 4
  %v4_3bd9 = zext i32 %v3_3bd9 to i64
  store i64 %v4_3bd9, i64* @rbx, align 8
  %v1_3bdc = inttoptr i64 %v3_3bd5 to i64*
  %v2_3bdc = load i64, i64* %v1_3bdc, align 8
  %v1_3be2 = trunc i64 %v2_3bdc to i32
  %v4_3be2 = add i32 %v1_3be2, %v3_3bd9
  %v20_3be2 = zext i32 %v4_3be2 to i64
  store i64 %v20_3be2, i64* @rax, align 8
  store i64 %v0_3bd0, i64* @rbx, align 8
  ret i64 %v20_3be2
}

define i64 @"_ZN3org4luaj3vm218Varargs$SubVarargs4arg1EJPNS1_8LuaValueEv"(i64 %arg1) local_unnamed_addr {
dec_label_pc_3bf0:
  store i64 %arg1, i64* @rdi, align 8
  %v0_3bf4 = load i64, i64* @rdi, align 8
  %v1_3bf4 = add i64 %v0_3bf4, 8
  %v2_3bf4 = inttoptr i64 %v1_3bf4 to i64*
  %v3_3bf4 = load i64, i64* %v2_3bf4, align 8
  store i64 %v3_3bf4, i64* @rax, align 8
  %v1_3bfb = inttoptr i64 %v3_3bf4 to i64*
  %v2_3bfb = load i64, i64* %v1_3bfb, align 8
  store i64 %v2_3bfb, i64* @rdx, align 8
  store i64 %v3_3bf4, i64* @rdi, align 8
  ret i64 %v3_3bf4
}

define i64 @"_ZN3org4luaj3vm218Varargs$SubVarargs4nargEJiv"(i64 %arg1) local_unnamed_addr {
dec_label_pc_3c10:
  store i64 %arg1, i64* @rdi, align 8
  %v1_3c10 = add i64 %arg1, 20
  %v2_3c10 = inttoptr i64 %v1_3c10 to i32*
  %v3_3c10 = load i32, i32* %v2_3c10, align 4
  %v2_3c13 = add i32 %v3_3c10, 1
  %v17_3c13 = zext i32 %v2_3c13 to i64
  store i64 %v17_3c13, i64* @rax, align 8
  %v3_3c16 = add i64 %arg1, 16
  %v4_3c16 = inttoptr i64 %v3_3c16 to i32*
  %v5_3c16 = load i32, i32* %v4_3c16, align 4
  %v6_3c16 = sub i32 %v2_3c13, %v5_3c16
  %v22_3c16 = zext i32 %v6_3c16 to i64
  store i64 %v22_3c16, i64* @rax, align 8
  ret i64 %v22_3c16
}

define i64 @"_ZN3org4luaj3vm224Varargs$ArrayPartVarargs4nargEJiv"(i64 %arg1) local_unnamed_addr {
dec_label_pc_3c20:
  store i64 %arg1, i64* @rdi, align 8
  %v0_3c20 = load i64, i64* @rbx, align 8
  %v0_3c21 = load i64, i64* @rdi, align 8
  %v1_3c21 = add i64 %v0_3c21, 24
  %v2_3c21 = inttoptr i64 %v1_3c21 to i32*
  %v3_3c21 = load i32, i32* %v2_3c21, align 4
  %v4_3c21 = zext i32 %v3_3c21 to i64
  store i64 %v4_3c21, i64* @rbx, align 8
  %v1_3c24 = add i64 %v0_3c21, 32
  %v2_3c24 = inttoptr i64 %v1_3c24 to i64*
  %v3_3c24 = load i64, i64* %v2_3c24, align 8
  store i64 %v3_3c24, i64* @rdi, align 8
  %v1_3c28 = inttoptr i64 %v3_3c24 to i64*
  %v2_3c28 = load i64, i64* %v1_3c28, align 8
  %v1_3c2e = trunc i64 %v2_3c28 to i32
  %v4_3c2e = add i32 %v1_3c2e, %v3_3c21
  %v20_3c2e = zext i32 %v4_3c2e to i64
  store i64 %v20_3c2e, i64* @rax, align 8
  store i64 %v0_3c20, i64* @rbx, align 8
  ret i64 %v20_3c2e
}

define i64 @_ZN3org4luaj3vm29LuaThread4typeEJiv() local_unnamed_addr {
dec_label_pc_3c40:
  store i64 8, i64* @rax, align 8
  ret i64 8
}

define i64 @"_ZN3org4luaj3vm29LuaThread9typename$EJPN4java4lang6StringEv"() local_unnamed_addr {
dec_label_pc_3c50:
  %v0_3c50 = load i64, i64* inttoptr (i64 15447 to i64*), align 8
  store i64 %v0_3c50, i64* @rax, align 8
  ret i64 %v0_3c50
}

define i64 @_ZN3org4luaj3vm29LuaThread9optthreadEJPS2_S3_(i64 %arg1) local_unnamed_addr {
dec_label_pc_3c60:
  store i64 %arg1, i64* @rdi, align 8
  store i64 %arg1, i64* @rax, align 8
  ret i64 %arg1
}

define i64 @_ZN3org4luaj3vm29LuaThread11checkthreadEJPS2_v(i64 %arg1) local_unnamed_addr {
dec_label_pc_3c70:
  store i64 %arg1, i64* @rdi, align 8
  store i64 %arg1, i64* @rax, align 8
  ret i64 %arg1
}

define i64 @_ZN3org4luaj3vm29LuaThread12getmetatableEJPNS1_8LuaValueEv() local_unnamed_addr {
dec_label_pc_3c80:
  %v0_3c80 = load i64, i64* inttoptr (i64 15495 to i64*), align 8
  store i64 %v0_3c80, i64* @rax, align 8
  ret i64 %v0_3c80
}

define i64 @_ZN3org4luaj3vm29LuaThread12isMainThreadEJbv(i64 %arg1) local_unnamed_addr {
dec_label_pc_3c90:
  store i64 %arg1, i64* @rdi, align 8
  %v1_3c90 = add i64 %arg1, 8
  %v2_3c90 = inttoptr i64 %v1_3c90 to i64*
  %v3_3c90 = load i64, i64* %v2_3c90, align 8
  store i64 %v3_3c90, i64* @rax, align 8
  %v1_3c94 = add i64 %v3_3c90, 24
  %v2_3c94 = inttoptr i64 %v1_3c94 to i64*
  %v3_3c94 = load i64, i64* %v2_3c94, align 8
  %v10_3c94 = icmp eq i64 %v3_3c94, 0
  %v1_3c99 = zext i1 %v10_3c94 to i64
  %v3_3c99 = and i64 %v3_3c90, -256
  %v4_3c99 = or i64 %v1_3c99, %v3_3c99
  store i64 %v4_3c99, i64* @rax, align 8
  ret i64 %v4_3c99
}

define i64 @_ZN3org4luaj3vm211LuaUserdata4typeEJiv() local_unnamed_addr {
dec_label_pc_3ca0:
  store i64 7, i64* @rax, align 8
  ret i64 7
}

define i64 @"_ZN3org4luaj3vm211LuaUserdata9typename$EJPN4java4lang6StringEv"() local_unnamed_addr {
dec_label_pc_3cb0:
  %v0_3cb0 = load i64, i64* inttoptr (i64 15543 to i64*), align 8
  store i64 %v0_3cb0, i64* @rax, align 8
  ret i64 %v0_3cb0
}

define i64 @_ZN3org4luaj3vm211LuaUserdata8hashCodeEJiv(i64 %arg1) local_unnamed_addr {
dec_label_pc_3cc0:
  store i64 %arg1, i64* @rdi, align 8
  %v0_3cc4 = load i64, i64* @rdi, align 8
  %v1_3cc4 = add i64 %v0_3cc4, 8
  %v2_3cc4 = inttoptr i64 %v1_3cc4 to i64*
  %v3_3cc4 = load i64, i64* %v2_3cc4, align 8
  store i64 %v3_3cc4, i64* @rdi, align 8
  %v1_3cc8 = inttoptr i64 %v3_3cc4 to i64*
  %v2_3cc8 = load i64, i64* %v1_3cc8, align 8
  store i64 %v2_3cc8, i64* @rax, align 8
  ret i64 %v2_3cc8
}

define i64 @_ZN3org4luaj3vm211LuaUserdata11optuserdataEJPN4java4lang6ObjectES6_(i64 %arg1) local_unnamed_addr {
dec_label_pc_3ce0:
  store i64 %arg1, i64* @rdi, align 8
  %v1_3ce0 = add i64 %arg1, 8
  %v2_3ce0 = inttoptr i64 %v1_3ce0 to i64*
  %v3_3ce0 = load i64, i64* %v2_3ce0, align 8
  store i64 %v3_3ce0, i64* @rax, align 8
  ret i64 %v3_3ce0
}

define i64 @_ZN3org4luaj3vm211LuaUserdata12getmetatableEJPNS1_8LuaValueEv(i64 %arg1) local_unnamed_addr {
dec_label_pc_3cf0:
  store i64 %arg1, i64* @rdi, align 8
  %v1_3cf0 = add i64 %arg1, 16
  %v2_3cf0 = inttoptr i64 %v1_3cf0 to i64*
  %v3_3cf0 = load i64, i64* %v2_3cf0, align 8
  store i64 %v3_3cf0, i64* @rax, align 8
  ret i64 %v3_3cf0
}

define i64 @_ZN3org4luaj3vm211LuaUserdata12setmetatableEJPNS1_8LuaValueES4_(i64 %arg1, i64 %arg2) local_unnamed_addr {
dec_label_pc_3d00:
  store i64 %arg1, i64* @rdi, align 8
  store i64 %arg1, i64* @rax, align 8
  %v2_3d03 = add i64 %arg1, 16
  %v3_3d03 = inttoptr i64 %v2_3d03 to i64*
  store i64 %arg2, i64* %v3_3d03, align 8
  %v0_3d07 = load i64, i64* @rax, align 8
  ret i64 %v0_3d07
}

define i64 @_ZN3org4luaj3vm211LuaUserdata13checkuserdataEJPN4java4lang6ObjectEv(i64 %arg1) local_unnamed_addr {
dec_label_pc_3d10:
  store i64 %arg1, i64* @rdi, align 8
  %v1_3d10 = add i64 %arg1, 8
  %v2_3d10 = inttoptr i64 %v1_3d10 to i64*
  %v3_3d10 = load i64, i64* %v2_3d10, align 8
  store i64 %v3_3d10, i64* @rax, align 8
  ret i64 %v3_3d10
}

define i64 @_ZN3org4luaj3vm211LuaUserdata2eqEJPNS1_8LuaValueES4_(i64 %arg1) local_unnamed_addr {
dec_label_pc_3d20:
  store i64 %arg1, i64* @rdi, align 8
  %v2_3d24 = load i64, i64* @rdi, align 8
  store i64 %v2_3d24, i64* @rax, align 8
  %v4_3d2d = trunc i64 %v2_3d24 to i8
  %v5_3d2d = icmp eq i8 %v4_3d2d, 0
  %v0_3d2f = load i64, i64* inttoptr (i64 15670 to i64*), align 8
  store i64 %v0_3d2f, i64* @rax, align 8
  %v2_3d36 = load i64, i64* inttoptr (i64 15678 to i64*), align 8
  %v3_3d36 = select i1 %v5_3d2d, i64 %v2_3d36, i64 %v0_3d2f
  store i64 %v3_3d36, i64* @rax, align 8
  ret i64 %v3_3d36
}

define i64 @_ZN3org4luaj3vm211LuaUserdata5raweqEJbPNS1_8LuaValueE(i64 %arg1, i64 %arg2) local_unnamed_addr {
dec_label_pc_3d50:
  store i64 %arg1, i64* @rdi, align 8
  store i64 %arg2, i64* @rax, align 8
  %v0_3d57 = load i64, i64* @rdi, align 8
  store i64 %v0_3d57, i64* @rdx, align 8
  store i64 %arg2, i64* @rdi, align 8
  ret i64 %arg2
}

define i64 @_ZN3org4luaj3vm211LuaFunction4typeEJiv() local_unnamed_addr {
dec_label_pc_3d70:
  store i64 6, i64* @rax, align 8
  ret i64 6
}

define i64 @"_ZN3org4luaj3vm211LuaFunction9typename$EJPN4java4lang6StringEv"() local_unnamed_addr {
dec_label_pc_3d80:
  %v0_3d80 = load i64, i64* inttoptr (i64 15751 to i64*), align 8
  store i64 %v0_3d80, i64* @rax, align 8
  ret i64 %v0_3d80
}

define i64 @_ZN3org4luaj3vm211LuaFunction13checkfunctionEJPS2_v(i64 %arg1) local_unnamed_addr {
dec_label_pc_3d90:
  store i64 %arg1, i64* @rdi, align 8
  store i64 %arg1, i64* @rax, align 8
  ret i64 %arg1
}

define i64 @_ZN3org4luaj3vm211LuaFunction11optfunctionEJPS2_S3_(i64 %arg1) local_unnamed_addr {
dec_label_pc_3da0:
  store i64 %arg1, i64* @rdi, align 8
  store i64 %arg1, i64* @rax, align 8
  ret i64 %arg1
}

define i64 @_ZN3org4luaj3vm211LuaFunction12getmetatableEJPNS1_8LuaValueEv() local_unnamed_addr {
dec_label_pc_3db0:
  %v0_3db0 = load i64, i64* inttoptr (i64 15799 to i64*), align 8
  store i64 %v0_3db0, i64* @rax, align 8
  ret i64 %v0_3db0
}

define i64 @_ZN3org4luaj3vm211LuaFunction4nameEJPN4java4lang6StringEv(i64 %arg1) local_unnamed_addr {
dec_label_pc_3dc0:
  store i64 %arg1, i64* @rdi, align 8
  %v2_3dc4 = load i64, i64* @rdi, align 8
  store i64 %v2_3dc4, i64* @rax, align 8
  ret i64 %v2_3dc4
}

define i64 @_ZN3org4luaj3vm25Print2idEJPN4java4lang6StringEPNS1_9PrototypeE() local_unnamed_addr {
dec_label_pc_3de0:
  %v0_3de0 = load i64, i64* inttoptr (i64 15847 to i64*), align 8
  store i64 %v0_3de0, i64* @rax, align 8
  ret i64 %v0_3de0
}

define i64 @_ZN3org4luaj3vm28LuaError8getCauseEJPN4java4lang9ThrowableEv(i64 %arg1) local_unnamed_addr {
dec_label_pc_3df0:
  store i64 %arg1, i64* @rdi, align 8
  %v1_3df0 = add i64 %arg1, 64
  %v2_3df0 = inttoptr i64 %v1_3df0 to i64*
  %v3_3df0 = load i64, i64* %v2_3df0, align 8
  store i64 %v3_3df0, i64* @rax, align 8
  ret i64 %v3_3df0
}

define i64 @"_ZN3org4luaj3vm218Globals$UTF8Stream5closeEJvv"(i64 %arg1) local_unnamed_addr {
dec_label_pc_3e00:
  store i64 %arg1, i64* @rdi, align 8
  %v0_3e04 = load i64, i64* @rdi, align 8
  %v1_3e04 = add i64 %v0_3e04, 32
  %v2_3e04 = inttoptr i64 %v1_3e04 to i64*
  %v3_3e04 = load i64, i64* %v2_3e04, align 8
  store i64 %v3_3e04, i64* @rdi, align 8
  %v1_3e08 = inttoptr i64 %v3_3e04 to i64*
  %v2_3e08 = load i64, i64* %v1_3e08, align 8
  store i64 %v2_3e08, i64* @rax, align 8
  ret i64 %v2_3e08
}

define i64 @"_ZN3org4luaj3vm217Globals$StrReader5closeEJvv"(i64 %arg1) local_unnamed_addr {
dec_label_pc_3e20:
  store i64 %arg1, i64* @rdi, align 8
  %v1_3e20 = add i64 %arg1, 28
  %v2_3e20 = inttoptr i64 %v1_3e20 to i32*
  %v3_3e20 = load i32, i32* %v2_3e20, align 4
  %v4_3e20 = zext i32 %v3_3e20 to i64
  store i64 %v4_3e20, i64* @rax, align 8
  %v3_3e23 = add i64 %arg1, 24
  %v4_3e23 = inttoptr i64 %v3_3e23 to i32*
  store i32 %v3_3e20, i32* %v4_3e23, align 4
  %v0_3e26 = load i64, i64* @rax, align 8
  ret i64 %v0_3e26
}

define i64 @"_ZN3org4luaj3vm222Globals$BufferedStream5closeEJvv"(i64 %arg1) local_unnamed_addr {
dec_label_pc_3e30:
  store i64 %arg1, i64* @rdi, align 8
  %v0_3e34 = load i64, i64* @rdi, align 8
  %v1_3e34 = add i64 %v0_3e34, 24
  %v2_3e34 = inttoptr i64 %v1_3e34 to i64*
  %v3_3e34 = load i64, i64* %v2_3e34, align 8
  store i64 %v3_3e34, i64* @rdi, align 8
  %v1_3e38 = inttoptr i64 %v3_3e34 to i64*
  %v2_3e38 = load i64, i64* %v1_3e38, align 8
  store i64 %v2_3e38, i64* @rax, align 8
  ret i64 %v2_3e38
}

define i64 @_ZN3org4luaj3vm27Globals12checkglobalsEJPS2_v(i64 %arg1) local_unnamed_addr {
dec_label_pc_3e50:
  store i64 %arg1, i64* @rdi, align 8
  store i64 %arg1, i64* @rax, align 8
  ret i64 %arg1
}

define i64 @"_ZN3org4luaj3vm230Globals$AbstractBufferedStream4readEJiP6JArrayIcE"(i64 %arg1, i64 %arg2, i64 %arg3) local_unnamed_addr {
dec_label_pc_3e60:
  store i64 %arg3, i64* @rdx, align 8
  store i64 %arg1, i64* @rdi, align 8
  %v1_3e64 = add i64 %arg2, 8
  %v2_3e64 = inttoptr i64 %v1_3e64 to i32*
  %v3_3e64 = load i32, i32* %v2_3e64, align 4
  %v4_3e64 = zext i32 %v3_3e64 to i64
  store i64 %v4_3e64, i64* @rcx, align 8
  %v2_3e67 = load i64, i64* @rdi, align 8
  store i64 %v2_3e67, i64* @rax, align 8
  store i64 0, i64* @rdx, align 8
  ret i64 %v2_3e67
}

define i64 @"_ZN3org4luaj3vm230Globals$AbstractBufferedStream4skipEJxx"(i64 %arg1, i64 %arg2) local_unnamed_addr {
dec_label_pc_3e80:
  store i64 %arg1, i64* @rdi, align 8
  %v1_3e80 = add i64 %arg1, 16
  %v2_3e80 = inttoptr i64 %v1_3e80 to i32*
  %v3_3e80 = load i32, i32* %v2_3e80, align 4
  %v4_3e80 = sext i32 %v3_3e80 to i64
  store i64 %v4_3e80, i64* @rdx, align 8
  %v1_3e84 = add i64 %arg1, 20
  %v2_3e84 = inttoptr i64 %v1_3e84 to i32*
  %v3_3e84 = load i32, i32* %v2_3e84, align 4
  %v4_3e87 = sub i32 %v3_3e84, %v3_3e80
  %v20_3e87 = zext i32 %v4_3e87 to i64
  %v2_3e8b = sub i64 %v20_3e87, %arg2
  %v10_3e8b = and i64 %v2_3e8b, %arg2
  %v11_3e8b = icmp slt i64 %v10_3e8b, 0
  %v12_3e8b = icmp eq i64 %v2_3e8b, 0
  %v13_3e8b = icmp slt i64 %v2_3e8b, 0
  %v3_3e8e = icmp eq i1 %v13_3e8b, %v11_3e8b
  %v4_3e8e = icmp eq i1 %v12_3e8b, false
  %v5_3e8e = icmp eq i1 %v3_3e8e, %v4_3e8e
  %v8_3e8e = select i1 %v5_3e8e, i64 %arg2, i64 %v20_3e87
  store i64 %v8_3e8e, i64* @rax, align 8
  %v2_3e92 = add i64 %v8_3e8e, %v4_3e80
  store i64 %v2_3e92, i64* @rdx, align 8
  %v1_3e95 = trunc i64 %v2_3e92 to i32
  store i32 %v1_3e95, i32* %v2_3e80, align 4
  %v0_3e98 = load i64, i64* @rax, align 8
  ret i64 %v0_3e98
}

define i64 @"_ZN3org4luaj3vm230Globals$AbstractBufferedStream9availableEJiv"(i64 %arg1) local_unnamed_addr {
dec_label_pc_3ea0:
  store i64 %arg1, i64* @rdi, align 8
  %v1_3ea0 = add i64 %arg1, 20
  %v2_3ea0 = inttoptr i64 %v1_3ea0 to i32*
  %v3_3ea0 = load i32, i32* %v2_3ea0, align 4
  %v4_3ea0 = zext i32 %v3_3ea0 to i64
  store i64 %v4_3ea0, i64* @rax, align 8
  %v3_3ea3 = add i64 %arg1, 16
  %v4_3ea3 = inttoptr i64 %v3_3ea3 to i32*
  %v5_3ea3 = load i32, i32* %v4_3ea3, align 4
  %v6_3ea3 = sub i32 %v3_3ea0, %v5_3ea3
  %v22_3ea3 = zext i32 %v6_3ea3 to i64
  store i64 %v22_3ea3, i64* @rax, align 8
  ret i64 %v22_3ea3
}

define i64 @_ZN3org4luaj3vm217NonTableMetatable10toLuaValueEJPNS1_8LuaValueEv(i64 %arg1) local_unnamed_addr {
dec_label_pc_3eb0:
  store i64 %arg1, i64* @rdi, align 8
  %v1_3eb0 = add i64 %arg1, 8
  %v2_3eb0 = inttoptr i64 %v1_3eb0 to i64*
  %v3_3eb0 = load i64, i64* %v2_3eb0, align 8
  store i64 %v3_3eb0, i64* @rax, align 8
  ret i64 %v3_3eb0
}

define i64 @_ZN3org4luaj3vm210LuaInteger6tobyteEJcv(i64 %arg1) local_unnamed_addr {
dec_label_pc_3ec0:
  store i64 %arg1, i64* @rdi, align 8
  %v1_3ec0 = add i64 %arg1, 8
  %v2_3ec0 = inttoptr i64 %v1_3ec0 to i32*
  %v3_3ec0 = load i32, i32* %v2_3ec0, align 4
  %v4_3ec0 = zext i32 %v3_3ec0 to i64
  store i64 %v4_3ec0, i64* @rax, align 8
  ret i64 %v4_3ec0
}

define i64 @_ZN3org4luaj3vm210LuaInteger6tocharEJwv(i64 %arg1) local_unnamed_addr {
dec_label_pc_3ed0:
  store i64 %arg1, i64* @rdi, align 8
  %v1_3ed0 = add i64 %arg1, 8
  %v2_3ed0 = inttoptr i64 %v1_3ed0 to i32*
  %v3_3ed0 = load i32, i32* %v2_3ed0, align 4
  %v4_3ed0 = zext i32 %v3_3ed0 to i64
  store i64 %v4_3ed0, i64* @rax, align 8
  ret i64 %v4_3ed0
}

define i128 @_ZN3org4luaj3vm210LuaInteger7tofloatEJfv(i64 %arg1) local_unnamed_addr {
dec_label_pc_3ee0:
  %xmm0.global-to-local = alloca i128, align 8
  store i64 %arg1, i64* @rdi, align 8
  %v0_3ee0 = load i128, i128* %xmm0.global-to-local, align 8
  %v2_3ee0 = call i128 @__asm_pxor(i128 %v0_3ee0, i128 %v0_3ee0)
  store i128 %v2_3ee0, i128* %xmm0.global-to-local, align 8
  %v0_3ee4 = load i64, i64* @rdi, align 8
  %v1_3ee4 = add i64 %v0_3ee4, 8
  %v2_3ee4 = inttoptr i64 %v1_3ee4 to i32*
  %v3_3ee4 = load i32, i32* %v2_3ee4, align 4
  %v4_3ee4 = call i128 @__asm_cvtsi2ss(i32 %v3_3ee4)
  store i128 %v4_3ee4, i128* %xmm0.global-to-local, align 8
  ret i128 %v4_3ee4
}

define i64 @_ZN3org4luaj3vm210LuaInteger7toshortEJsv(i64 %arg1) local_unnamed_addr {
dec_label_pc_3ef0:
  store i64 %arg1, i64* @rdi, align 8
  %v1_3ef0 = add i64 %arg1, 8
  %v2_3ef0 = inttoptr i64 %v1_3ef0 to i32*
  %v3_3ef0 = load i32, i32* %v2_3ef0, align 4
  %v4_3ef0 = zext i32 %v3_3ef0 to i64
  store i64 %v4_3ef0, i64* @rax, align 8
  ret i64 %v4_3ef0
}

define i128 @_ZN3org4luaj3vm210LuaInteger9optdoubleEJdd(i64 %arg1) local_unnamed_addr {
dec_label_pc_3f00:
  %xmm0.global-to-local = alloca i128, align 8
  store i64 %arg1, i64* @rdi, align 8
  %v0_3f00 = load i128, i128* %xmm0.global-to-local, align 8
  %v2_3f00 = call i128 @__asm_pxor(i128 %v0_3f00, i128 %v0_3f00)
  store i128 %v2_3f00, i128* %xmm0.global-to-local, align 8
  %v0_3f04 = load i64, i64* @rdi, align 8
  %v1_3f04 = add i64 %v0_3f04, 8
  %v2_3f04 = inttoptr i64 %v1_3f04 to i32*
  %v3_3f04 = load i32, i32* %v2_3f04, align 4
  %v4_3f04 = call i128 @__asm_cvtsi2sd.7468(i32 %v3_3f04)
  store i128 %v4_3f04, i128* %xmm0.global-to-local, align 8
  ret i128 %v4_3f04
}

define i64 @_ZN3org4luaj3vm210LuaInteger6optintEJii(i64 %arg1) local_unnamed_addr {
dec_label_pc_3f10:
  store i64 %arg1, i64* @rdi, align 8
  %v1_3f10 = add i64 %arg1, 8
  %v2_3f10 = inttoptr i64 %v1_3f10 to i32*
  %v3_3f10 = load i32, i32* %v2_3f10, align 4
  %v4_3f10 = zext i32 %v3_3f10 to i64
  store i64 %v4_3f10, i64* @rax, align 8
  ret i64 %v4_3f10
}

define i64 @_ZN3org4luaj3vm210LuaInteger10optintegerEJPS2_S3_(i64 %arg1) local_unnamed_addr {
dec_label_pc_3f20:
  store i64 %arg1, i64* @rdi, align 8
  store i64 %arg1, i64* @rax, align 8
  ret i64 %arg1
}

define i64 @_ZN3org4luaj3vm210LuaInteger7optlongEJxx(i64 %arg1) local_unnamed_addr {
dec_label_pc_3f30:
  store i64 %arg1, i64* @rdi, align 8
  %v1_3f30 = add i64 %arg1, 8
  %v2_3f30 = inttoptr i64 %v1_3f30 to i32*
  %v3_3f30 = load i32, i32* %v2_3f30, align 4
  %v4_3f30 = sext i32 %v3_3f30 to i64
  store i64 %v4_3f30, i64* @rax, align 8
  ret i64 %v4_3f30
}

define i64 @_ZN3org4luaj3vm210LuaInteger12checkintegerEJPS2_v(i64 %arg1) local_unnamed_addr {
dec_label_pc_3f40:
  store i64 %arg1, i64* @rdi, align 8
  store i64 %arg1, i64* @rax, align 8
  ret i64 %arg1
}

define i64 @_ZN3org4luaj3vm210LuaInteger2eqEJPNS1_8LuaValueES4_(i64 %arg1, i64 %arg2) local_unnamed_addr {
dec_label_pc_3f50:
  store i64 %arg1, i64* @rdi, align 8
  store i64 %arg2, i64* @rax, align 8
  %v0_3f57 = load i64, i64* @rdi, align 8
  %v1_3f57 = add i64 %v0_3f57, 8
  %v2_3f57 = inttoptr i64 %v1_3f57 to i32*
  %v3_3f57 = load i32, i32* %v2_3f57, align 4
  %v4_3f57 = zext i32 %v3_3f57 to i64
  store i64 %v4_3f57, i64* @rdx, align 8
  store i64 %arg2, i64* @rdi, align 8
  %v4_3f66 = trunc i64 %arg2 to i8
  %v5_3f66 = icmp eq i8 %v4_3f66, 0
  %v0_3f68 = load i64, i64* inttoptr (i64 16239 to i64*), align 8
  store i64 %v0_3f68, i64* @rax, align 8
  %v2_3f6f = load i64, i64* inttoptr (i64 16247 to i64*), align 8
  %v3_3f6f = select i1 %v5_3f66, i64 %v2_3f6f, i64 %v0_3f68
  store i64 %v3_3f6f, i64* @rax, align 8
  ret i64 %v3_3f6f
}

define i64 @_ZN3org4luaj3vm210LuaInteger5raweqEJbPNS1_8LuaValueE(i64 %arg1, i64 %arg2) local_unnamed_addr {
dec_label_pc_3f80:
  store i64 %arg1, i64* @rdi, align 8
  store i64 %arg2, i64* @rax, align 8
  %v0_3f87 = load i64, i64* @rdi, align 8
  %v1_3f87 = add i64 %v0_3f87, 8
  %v2_3f87 = inttoptr i64 %v1_3f87 to i32*
  %v3_3f87 = load i32, i32* %v2_3f87, align 4
  %v4_3f87 = zext i32 %v3_3f87 to i64
  store i64 %v4_3f87, i64* @rdx, align 8
  store i64 %arg2, i64* @rdi, align 8
  ret i64 %arg2
}

define i64 @_ZN3org4luaj3vm210LuaInteger5raweqEJbd(i64 %arg1) local_unnamed_addr {
dec_label_pc_3fa0:
  %pf.global-to-local = alloca i1, align 1
  %xmm0.global-to-local = alloca i128, align 8
  %xmm1.global-to-local = alloca i128, align 8
  %zf.global-to-local = alloca i1, align 1
  store i64 %arg1, i64* @rdi, align 8
  %v0_3fa0 = load i128, i128* %xmm1.global-to-local, align 8
  %v2_3fa0 = call i128 @__asm_pxor(i128 %v0_3fa0, i128 %v0_3fa0)
  store i128 %v2_3fa0, i128* %xmm1.global-to-local, align 8
  store i64 0, i64* @rdx, align 8
  %v0_3fa9 = load i64, i64* @rdi, align 8
  %v1_3fa9 = add i64 %v0_3fa9, 8
  %v2_3fa9 = inttoptr i64 %v1_3fa9 to i32*
  %v3_3fa9 = load i32, i32* %v2_3fa9, align 4
  %v4_3fa9 = call i128 @__asm_cvtsi2sd.7468(i32 %v3_3fa9)
  store i128 %v4_3fa9, i128* %xmm1.global-to-local, align 8
  %v1_3fae = load i128, i128* %xmm0.global-to-local, align 8
  call void @__asm_ucomisd(i128 %v4_3fa9, i128 %v1_3fae)
  %v0_3fb2 = load i1, i1* %pf.global-to-local, align 1
  %v1_3fb2 = icmp eq i1 %v0_3fb2, false
  %v2_3fb2 = zext i1 %v1_3fb2 to i64
  %v3_3fb2 = load i64, i64* @rax, align 8
  %v4_3fb2 = and i64 %v3_3fb2, 4294967040
  %v5_3fb2 = or i64 %v4_3fb2, %v2_3fb2
  %v0_3fb5 = load i1, i1* %zf.global-to-local, align 1
  %v1_3fb5 = icmp eq i1 %v0_3fb5, false
  %v4_3fb5 = load i64, i64* @rdx, align 8
  %v6_3fb5.v = select i1 %v1_3fb5, i64 %v4_3fb5, i64 %v5_3fb2
  %v7_3fb5 = and i64 %v6_3fb5.v, 4294967295
  store i64 %v7_3fb5, i64* @rax, align 8
  ret i64 %v7_3fb5
}

define i64 @_ZN3org4luaj3vm210LuaInteger5raweqEJbi(i64 %arg1, i64 %arg2) local_unnamed_addr {
dec_label_pc_3fc0:
  store i64 %arg1, i64* @rdi, align 8
  %v1_3fc0 = add i64 %arg1, 8
  %v2_3fc0 = inttoptr i64 %v1_3fc0 to i32*
  %v3_3fc0 = load i32, i32* %v2_3fc0, align 4
  %v5_3fc0 = trunc i64 %arg2 to i32
  %v16_3fc0 = icmp eq i32 %v3_3fc0, %v5_3fc0
  %v1_3fc3 = zext i1 %v16_3fc0 to i64
  %v2_3fc3 = load i64, i64* @rax, align 8
  %v3_3fc3 = and i64 %v2_3fc3, -256
  %v4_3fc3 = or i64 %v3_3fc3, %v1_3fc3
  store i64 %v4_3fc3, i64* @rax, align 8
  ret i64 %v4_3fc3
}

define i64 @_ZN3org4luaj3vm210LuaInteger3addEJPNS1_8LuaValueES4_(i64 %arg1, i64 %arg2) local_unnamed_addr {
dec_label_pc_3fd0:
  store i64 %arg1, i64* @rdi, align 8
  store i64 %arg2, i64* @rax, align 8
  %v0_3fd7 = load i64, i64* @rdi, align 8
  %v1_3fd7 = add i64 %v0_3fd7, 8
  %v2_3fd7 = inttoptr i64 %v1_3fd7 to i32*
  %v3_3fd7 = load i32, i32* %v2_3fd7, align 4
  %v4_3fd7 = zext i32 %v3_3fd7 to i64
  store i64 %v4_3fd7, i64* @rdx, align 8
  store i64 %arg2, i64* @rdi, align 8
  ret i64 %arg2
}

define i64 @_ZN3org4luaj3vm210LuaInteger3subEJPNS1_8LuaValueES4_(i64 %arg1, i64 %arg2) local_unnamed_addr {
dec_label_pc_3ff0:
  store i64 %arg1, i64* @rdi, align 8
  store i64 %arg2, i64* @rax, align 8
  %v0_3ff7 = load i64, i64* @rdi, align 8
  %v1_3ff7 = add i64 %v0_3ff7, 8
  %v2_3ff7 = inttoptr i64 %v1_3ff7 to i32*
  %v3_3ff7 = load i32, i32* %v2_3ff7, align 4
  %v4_3ff7 = zext i32 %v3_3ff7 to i64
  store i64 %v4_3ff7, i64* @rdx, align 8
  store i64 %arg2, i64* @rdi, align 8
  ret i64 %arg2
}

define i64 @_ZN3org4luaj3vm210LuaInteger3mulEJPNS1_8LuaValueES4_(i64 %arg1, i64 %arg2) local_unnamed_addr {
dec_label_pc_4010:
  store i64 %arg1, i64* @rdi, align 8
  store i64 %arg2, i64* @rax, align 8
  %v0_4017 = load i64, i64* @rdi, align 8
  %v1_4017 = add i64 %v0_4017, 8
  %v2_4017 = inttoptr i64 %v1_4017 to i32*
  %v3_4017 = load i32, i32* %v2_4017, align 4
  %v4_4017 = zext i32 %v3_4017 to i64
  store i64 %v4_4017, i64* @rdx, align 8
  store i64 %arg2, i64* @rdi, align 8
  ret i64 %arg2
}

define i64 @_ZN3org4luaj3vm210LuaInteger3powEJPNS1_8LuaValueES4_(i64 %arg1, i64 %arg2) local_unnamed_addr {
dec_label_pc_4030:
  store i64 %arg1, i64* @rdi, align 8
  store i64 %arg2, i64* @rax, align 8
  %v0_4037 = load i64, i64* @rdi, align 8
  %v1_4037 = add i64 %v0_4037, 8
  %v2_4037 = inttoptr i64 %v1_4037 to i32*
  %v3_4037 = load i32, i32* %v2_4037, align 4
  %v4_4037 = zext i32 %v3_4037 to i64
  store i64 %v4_4037, i64* @rdx, align 8
  store i64 %arg2, i64* @rdi, align 8
  ret i64 %arg2
}

define i64 @_ZN3org4luaj3vm210LuaInteger3divEJPNS1_8LuaValueES4_(i64 %arg1, i64 %arg2) local_unnamed_addr {
dec_label_pc_4050:
  %rsi.global-to-local = alloca i64, align 8
  %xmm0.global-to-local = alloca i128, align 8
  store i64 %arg2, i64* %rsi.global-to-local, align 8
  store i64 %arg1, i64* @rdi, align 8
  %v0_4050 = load i128, i128* %xmm0.global-to-local, align 8
  %v2_4050 = call i128 @__asm_pxor(i128 %v0_4050, i128 %v0_4050)
  store i128 %v2_4050, i128* %xmm0.global-to-local, align 8
  %v2_4058 = load i64, i64* %rsi.global-to-local, align 8
  store i64 %v2_4058, i64* @rax, align 8
  %v0_405b = load i64, i64* @rdi, align 8
  %v1_405b = add i64 %v0_405b, 8
  %v2_405b = inttoptr i64 %v1_405b to i32*
  %v3_405b = load i32, i32* %v2_405b, align 4
  %v4_405b = call i128 @__asm_cvtsi2sd.7468(i32 %v3_405b)
  store i128 %v4_405b, i128* %xmm0.global-to-local, align 8
  %v0_4060 = load i64, i64* %rsi.global-to-local, align 8
  store i64 %v0_4060, i64* @rdi, align 8
  %v0_406d = load i64, i64* @rax, align 8
  ret i64 %v0_406d
}

define i64 @_ZN3org4luaj3vm210LuaInteger3modEJPNS1_8LuaValueES4_(i64 %arg1, i64 %arg2) local_unnamed_addr {
dec_label_pc_4070:
  %rsi.global-to-local = alloca i64, align 8
  %xmm0.global-to-local = alloca i128, align 8
  store i64 %arg2, i64* %rsi.global-to-local, align 8
  store i64 %arg1, i64* @rdi, align 8
  %v0_4070 = load i128, i128* %xmm0.global-to-local, align 8
  %v2_4070 = call i128 @__asm_pxor(i128 %v0_4070, i128 %v0_4070)
  store i128 %v2_4070, i128* %xmm0.global-to-local, align 8
  %v2_4078 = load i64, i64* %rsi.global-to-local, align 8
  store i64 %v2_4078, i64* @rax, align 8
  %v0_407b = load i64, i64* @rdi, align 8
  %v1_407b = add i64 %v0_407b, 8
  %v2_407b = inttoptr i64 %v1_407b to i32*
  %v3_407b = load i32, i32* %v2_407b, align 4
  %v4_407b = call i128 @__asm_cvtsi2sd.7468(i32 %v3_407b)
  store i128 %v4_407b, i128* %xmm0.global-to-local, align 8
  %v0_4080 = load i64, i64* %rsi.global-to-local, align 8
  store i64 %v0_4080, i64* @rdi, align 8
  %v0_408d = load i64, i64* @rax, align 8
  ret i64 %v0_408d
}

define i64 @_ZN3org4luaj3vm210LuaInteger2ltEJPNS1_8LuaValueES4_(i64 %arg1, i64 %arg2) local_unnamed_addr {
dec_label_pc_4090:
  store i64 %arg1, i64* @rdi, align 8
  store i64 %arg2, i64* @rax, align 8
  %v0_4097 = load i64, i64* @rdi, align 8
  %v1_4097 = add i64 %v0_4097, 8
  %v2_4097 = inttoptr i64 %v1_4097 to i32*
  %v3_4097 = load i32, i32* %v2_4097, align 4
  %v4_4097 = zext i32 %v3_4097 to i64
  store i64 %v4_4097, i64* @rdx, align 8
  store i64 %arg2, i64* @rdi, align 8
  %v4_40a6 = trunc i64 %arg2 to i8
  %v5_40a6 = icmp eq i8 %v4_40a6, 0
  %v0_40a8 = load i64, i64* inttoptr (i64 16559 to i64*), align 8
  store i64 %v0_40a8, i64* @rax, align 8
  %v2_40af = load i64, i64* inttoptr (i64 16567 to i64*), align 8
  %v3_40af = select i1 %v5_40a6, i64 %v2_40af, i64 %v0_40a8
  store i64 %v3_40af, i64* @rax, align 8
  ret i64 %v3_40af
}

define i64 @_ZN3org4luaj3vm210LuaInteger2ltEJPNS1_8LuaValueEd(i64 %arg1) local_unnamed_addr {
dec_label_pc_40c0:
  %cf.global-to-local = alloca i1, align 1
  %xmm0.global-to-local = alloca i128, align 8
  %xmm1.global-to-local = alloca i128, align 8
  %zf.global-to-local = alloca i1, align 1
  store i64 %arg1, i64* @rdi, align 8
  %v0_40c0 = load i128, i128* %xmm1.global-to-local, align 8
  %v2_40c0 = call i128 @__asm_pxor(i128 %v0_40c0, i128 %v0_40c0)
  store i128 %v2_40c0, i128* %xmm1.global-to-local, align 8
  %v0_40c4 = load i64, i64* inttoptr (i64 16587 to i64*), align 8
  store i64 %v0_40c4, i64* @rax, align 8
  %v0_40cb = load i64, i64* @rdi, align 8
  %v1_40cb = add i64 %v0_40cb, 8
  %v2_40cb = inttoptr i64 %v1_40cb to i32*
  %v3_40cb = load i32, i32* %v2_40cb, align 4
  %v4_40cb = call i128 @__asm_cvtsi2sd.7468(i32 %v3_40cb)
  store i128 %v4_40cb, i128* %xmm1.global-to-local, align 8
  %v0_40d0 = load i128, i128* %xmm0.global-to-local, align 8
  call void @__asm_ucomisd(i128 %v0_40d0, i128 %v4_40cb)
  %v0_40d4 = load i1, i1* %cf.global-to-local, align 1
  %v1_40d4 = load i1, i1* %zf.global-to-local, align 1
  %v2_40d4 = or i1 %v0_40d4, %v1_40d4
  %v3_40d4 = icmp ne i1 %v2_40d4, true
  %v4_40d4 = load i64, i64* @rax, align 8
  %v5_40d4 = load i64, i64* inttoptr (i64 16604 to i64*), align 8
  %v6_40d4 = select i1 %v3_40d4, i64 %v5_40d4, i64 %v4_40d4
  store i64 %v6_40d4, i64* @rax, align 8
  ret i64 %v6_40d4
}

define i64 @_ZN3org4luaj3vm210LuaInteger2ltEJPNS1_8LuaValueEi() local_unnamed_addr {
dec_label_pc_40e0:
  %tmp234 = load i64, i64* @rax, align 8
  ret i64 %tmp234
}

define i64 @function_40e4() local_unnamed_addr {
dec_label_pc_40e4:
  %of.global-to-local = alloca i1, align 1
  %sf.global-to-local = alloca i1, align 1
  %v0_40e4 = load i32, i32* inttoptr (i64 16618 to i32*), align 4
  %v1_40e4 = zext i32 %v0_40e4 to i64
  store i64 %v1_40e4, i64* @rax, align 8
  %v0_40ea = load i1, i1* %sf.global-to-local, align 1
  %v1_40ea = load i1, i1* %of.global-to-local, align 1
  %v2_40ea = icmp eq i1 %v0_40ea, %v1_40ea
  %v4_40ea = load i64, i64* inttoptr (i64 16626 to i64*), align 8
  %v5_40ea = select i1 %v2_40ea, i64 %v4_40ea, i64 %v1_40e4
  store i64 %v5_40ea, i64* @rax, align 8
  ret i64 %v5_40ea
}

define i64 @_ZN3org4luaj3vm210LuaInteger4lt_bEJbPNS1_8LuaValueE(i64 %arg1, i64 %arg2) local_unnamed_addr {
dec_label_pc_4100:
  store i64 %arg1, i64* @rdi, align 8
  store i64 %arg2, i64* @rax, align 8
  %v0_4107 = load i64, i64* @rdi, align 8
  %v1_4107 = add i64 %v0_4107, 8
  %v2_4107 = inttoptr i64 %v1_4107 to i32*
  %v3_4107 = load i32, i32* %v2_4107, align 4
  %v4_4107 = zext i32 %v3_4107 to i64
  store i64 %v4_4107, i64* @rdx, align 8
  store i64 %arg2, i64* @rdi, align 8
  ret i64 %arg2
}

define i64 @_ZN3org4luaj3vm210LuaInteger4lt_bEJbi(i64 %arg1, i64 %arg2) local_unnamed_addr {
dec_label_pc_4120:
  store i64 %arg1, i64* @rdi, align 8
  %v1_4120 = add i64 %arg1, 8
  %v2_4120 = inttoptr i64 %v1_4120 to i32*
  %v3_4120 = load i32, i32* %v2_4120, align 4
  %v5_4120 = trunc i64 %arg2 to i32
  %v6_4120 = sub i32 %v3_4120, %v5_4120
  %v12_4120 = xor i32 %v3_4120, %v5_4120
  %v13_4120 = xor i32 %v6_4120, %v3_4120
  %v14_4120 = and i32 %v13_4120, %v12_4120
  %v15_4120 = icmp slt i32 %v14_4120, 0
  %v17_4120 = icmp slt i32 %v6_4120, 0
  %v2_4123 = icmp ne i1 %v17_4120, %v15_4120
  %v3_4123 = zext i1 %v2_4123 to i64
  %v4_4123 = load i64, i64* @rax, align 8
  %v5_4123 = and i64 %v4_4123, -256
  %v6_4123 = or i64 %v5_4123, %v3_4123
  store i64 %v6_4123, i64* @rax, align 8
  ret i64 %v6_4123
}

define i64 @_ZN3org4luaj3vm210LuaInteger4lt_bEJbd(i64 %arg1) local_unnamed_addr {
dec_label_pc_4130:
  %cf.global-to-local = alloca i1, align 1
  %xmm0.global-to-local = alloca i128, align 8
  %xmm1.global-to-local = alloca i128, align 8
  %zf.global-to-local = alloca i1, align 1
  store i64 %arg1, i64* @rdi, align 8
  %v0_4130 = load i128, i128* %xmm1.global-to-local, align 8
  %v2_4130 = call i128 @__asm_pxor(i128 %v0_4130, i128 %v0_4130)
  store i128 %v2_4130, i128* %xmm1.global-to-local, align 8
  %v0_4134 = load i64, i64* @rdi, align 8
  %v1_4134 = add i64 %v0_4134, 8
  %v2_4134 = inttoptr i64 %v1_4134 to i32*
  %v3_4134 = load i32, i32* %v2_4134, align 4
  %v4_4134 = call i128 @__asm_cvtsi2sd.7468(i32 %v3_4134)
  store i128 %v4_4134, i128* %xmm1.global-to-local, align 8
  %v0_4139 = load i128, i128* %xmm0.global-to-local, align 8
  call void @__asm_ucomisd(i128 %v0_4139, i128 %v4_4134)
  %v0_413d = load i1, i1* %cf.global-to-local, align 1
  %v1_413d = load i1, i1* %zf.global-to-local, align 1
  %v2_413d = or i1 %v0_413d, %v1_413d
  %v3_413d = icmp ne i1 %v2_413d, true
  %v4_413d = zext i1 %v3_413d to i64
  %v5_413d = load i64, i64* @rax, align 8
  %v6_413d = and i64 %v5_413d, -256
  %v7_413d = or i64 %v4_413d, %v6_413d
  store i64 %v7_413d, i64* @rax, align 8
  ret i64 %v7_413d
}

define i64 @_ZN3org4luaj3vm210LuaInteger4lteqEJPNS1_8LuaValueES4_(i64 %arg1, i64 %arg2) local_unnamed_addr {
dec_label_pc_4150:
  store i64 %arg1, i64* @rdi, align 8
  store i64 %arg2, i64* @rax, align 8
  %v0_4157 = load i64, i64* @rdi, align 8
  %v1_4157 = add i64 %v0_4157, 8
  %v2_4157 = inttoptr i64 %v1_4157 to i32*
  %v3_4157 = load i32, i32* %v2_4157, align 4
  %v4_4157 = zext i32 %v3_4157 to i64
  store i64 %v4_4157, i64* @rdx, align 8
  store i64 %arg2, i64* @rdi, align 8
  %v4_4166 = trunc i64 %arg2 to i8
  %v5_4166 = icmp eq i8 %v4_4166, 0
  %v0_4168 = load i64, i64* inttoptr (i64 16751 to i64*), align 8
  store i64 %v0_4168, i64* @rax, align 8
  %v2_416f = load i64, i64* inttoptr (i64 16759 to i64*), align 8
  %v3_416f = select i1 %v5_4166, i64 %v2_416f, i64 %v0_4168
  store i64 %v3_416f, i64* @rax, align 8
  ret i64 %v3_416f
}

define i64 @_ZN3org4luaj3vm210LuaInteger4lteqEJPNS1_8LuaValueEd(i64 %arg1) local_unnamed_addr {
dec_label_pc_4180:
  %cf.global-to-local = alloca i1, align 1
  %pf.global-to-local = alloca i1, align 1
  %xmm0.global-to-local = alloca i128, align 8
  %xmm1.global-to-local = alloca i128, align 8
  %zf.global-to-local = alloca i1, align 1
  store i64 %arg1, i64* @rdi, align 8
  %v0_4180 = load i128, i128* %xmm1.global-to-local, align 8
  %v2_4180 = call i128 @__asm_pxor(i128 %v0_4180, i128 %v0_4180)
  store i128 %v2_4180, i128* %xmm1.global-to-local, align 8
  %v0_4184 = load i64, i64* @rdi, align 8
  %v1_4184 = add i64 %v0_4184, 8
  %v2_4184 = inttoptr i64 %v1_4184 to i32*
  %v3_4184 = load i32, i32* %v2_4184, align 4
  %v4_4184 = call i128 @__asm_cvtsi2sd.7468(i32 %v3_4184)
  store i128 %v4_4184, i128* %xmm1.global-to-local, align 8
  %v0_4189 = load i128, i128* %xmm0.global-to-local, align 8
  call void @__asm_ucomisd(i128 %v0_4189, i128 %v4_4184)
  %v0_418d = load i1, i1* %cf.global-to-local, align 1
  %v1_418d = load i1, i1* %zf.global-to-local, align 1
  %v2_418d = or i1 %v0_418d, %v1_418d
  br i1 %v2_418d, label %dec_label_pc_41a0, label %dec_label_pc_418f

dec_label_pc_418f:                                ; preds = %dec_label_pc_41a6, %dec_label_pc_4180
  %v0_418f = load i64, i64* inttoptr (i64 16790 to i64*), align 8
  store i64 %v0_418f, i64* @rax, align 8
  ret i64 %v0_418f

dec_label_pc_41a0:                                ; preds = %dec_label_pc_4180
  %v1_41a0 = load i128, i128* %xmm0.global-to-local, align 8
  call void @__asm_ucomisd(i128 %v4_4184, i128 %v1_41a0)
  %v0_41a4 = load i1, i1* %pf.global-to-local, align 1
  br i1 %v0_41a4, label %dec_label_pc_41a8, label %dec_label_pc_41a6

dec_label_pc_41a6:                                ; preds = %dec_label_pc_41a0
  %v0_41a6 = load i1, i1* %zf.global-to-local, align 1
  br i1 %v0_41a6, label %dec_label_pc_418f, label %dec_label_pc_41a8

dec_label_pc_41a8:                                ; preds = %dec_label_pc_41a6, %dec_label_pc_41a0
  %v0_41a8 = load i64, i64* inttoptr (i64 16815 to i64*), align 8
  store i64 %v0_41a8, i64* @rax, align 8
  ret i64 %v0_41a8
}

define i64 @_ZN3org4luaj3vm210LuaInteger4lteqEJPNS1_8LuaValueEi() local_unnamed_addr {
dec_label_pc_41b0:
  %tmp234 = load i64, i64* @rax, align 8
  ret i64 %tmp234
}

define i64 @function_41b7(i64 %arg1, i64 %arg2, i64 %arg3, i64 %arg4) local_unnamed_addr {
dec_label_pc_41b7:
  store i64 %arg4, i64* @rcx, align 8
  store i64 %arg3, i64* @rdx, align 8
  store i64 %arg1, i64* @rdi, align 8
  %v2_41b7 = load i8, i8* bitcast (i64* @rax to i8*), align 8
  %v3_41b7 = load i64, i64* @rax, align 8
  %v4_41b7 = trunc i64 %v3_41b7 to i8
  %v5_41b7 = add i8 %v4_41b7, %v2_41b7
  %v21_41b7 = inttoptr i64 %v3_41b7 to i8*
  store i8 %v5_41b7, i8* %v21_41b7, align 1
  %v0_41b9 = load i64, i64* @rax, align 8
  %v1_41b9 = add i64 %v0_41b9, 15
  %v2_41b9 = inttoptr i64 %v1_41b9 to i8*
  %v3_41b9 = load i8, i8* %v2_41b9, align 1
  %v4_41b9 = load i64, i64* @rcx, align 8
  %v5_41b9 = trunc i64 %v4_41b9 to i8
  %v6_41b9 = add i8 %v5_41b9, %v3_41b9
  store i8 %v6_41b9, i8* %v2_41b9, align 1
  %v0_41bc = load i64, i64* @rax, align 8
  ret i64 %v0_41bc
}

define i64 @_ZN3org4luaj3vm210LuaInteger6lteq_bEJbPNS1_8LuaValueE(i64 %arg1, i64 %arg2) local_unnamed_addr {
dec_label_pc_41d0:
  store i64 %arg1, i64* @rdi, align 8
  store i64 %arg2, i64* @rax, align 8
  %v0_41d7 = load i64, i64* @rdi, align 8
  %v1_41d7 = add i64 %v0_41d7, 8
  %v2_41d7 = inttoptr i64 %v1_41d7 to i32*
  %v3_41d7 = load i32, i32* %v2_41d7, align 4
  %v4_41d7 = zext i32 %v3_41d7 to i64
  store i64 %v4_41d7, i64* @rdx, align 8
  store i64 %arg2, i64* @rdi, align 8
  ret i64 %arg2
}

define i64 @_ZN3org4luaj3vm210LuaInteger6lteq_bEJbi(i64 %arg1, i64 %arg2) local_unnamed_addr {
dec_label_pc_41f0:
  store i64 %arg1, i64* @rdi, align 8
  %v1_41f0 = add i64 %arg1, 8
  %v2_41f0 = inttoptr i64 %v1_41f0 to i32*
  %v3_41f0 = load i32, i32* %v2_41f0, align 4
  %v5_41f0 = trunc i64 %arg2 to i32
  %v6_41f0 = sub i32 %v3_41f0, %v5_41f0
  %v12_41f0 = xor i32 %v3_41f0, %v5_41f0
  %v13_41f0 = xor i32 %v6_41f0, %v3_41f0
  %v14_41f0 = and i32 %v13_41f0, %v12_41f0
  %v15_41f0 = icmp slt i32 %v14_41f0, 0
  %v16_41f0 = icmp eq i32 %v6_41f0, 0
  %v17_41f0 = icmp slt i32 %v6_41f0, 0
  %v3_41f3 = icmp ne i1 %v17_41f0, %v15_41f0
  %v4_41f3 = or i1 %v16_41f0, %v3_41f3
  %v5_41f3 = zext i1 %v4_41f3 to i64
  %v6_41f3 = load i64, i64* @rax, align 8
  %v7_41f3 = and i64 %v6_41f3, -256
  %v8_41f3 = or i64 %v5_41f3, %v7_41f3
  store i64 %v8_41f3, i64* @rax, align 8
  ret i64 %v8_41f3
}

define i64 @_ZN3org4luaj3vm210LuaInteger6lteq_bEJbd(i64 %arg1) local_unnamed_addr {
dec_label_pc_4200:
  %cf.global-to-local = alloca i1, align 1
  %pf.global-to-local = alloca i1, align 1
  %xmm0.global-to-local = alloca i128, align 8
  %xmm1.global-to-local = alloca i128, align 8
  %zf.global-to-local = alloca i1, align 1
  store i64 %arg1, i64* @rdi, align 8
  %v0_4200 = load i128, i128* %xmm1.global-to-local, align 8
  %v2_4200 = call i128 @__asm_pxor(i128 %v0_4200, i128 %v0_4200)
  store i128 %v2_4200, i128* %xmm1.global-to-local, align 8
  store i64 1, i64* @rax, align 8
  %v0_4209 = load i64, i64* @rdi, align 8
  %v1_4209 = add i64 %v0_4209, 8
  %v2_4209 = inttoptr i64 %v1_4209 to i32*
  %v3_4209 = load i32, i32* %v2_4209, align 4
  %v4_4209 = call i128 @__asm_cvtsi2sd.7468(i32 %v3_4209)
  store i128 %v4_4209, i128* %xmm1.global-to-local, align 8
  %v0_420e = load i128, i128* %xmm0.global-to-local, align 8
  call void @__asm_ucomisd(i128 %v0_420e, i128 %v4_4209)
  %v0_4212 = load i1, i1* %cf.global-to-local, align 1
  %v1_4212 = load i1, i1* %zf.global-to-local, align 1
  %v2_4212 = or i1 %v0_4212, %v1_4212
  br i1 %v2_4212, label %dec_label_pc_4214, label %dec_label_pc_4200.dec_label_pc_4223_crit_edge

dec_label_pc_4200.dec_label_pc_4223_crit_edge:    ; preds = %dec_label_pc_4200
  %v0_4223.pre = load i64, i64* @rax, align 8
  br label %dec_label_pc_4223

dec_label_pc_4214:                                ; preds = %dec_label_pc_4200
  %v1_4214 = load i128, i128* %xmm0.global-to-local, align 8
  call void @__asm_ucomisd(i128 %v4_4209, i128 %v1_4214)
  store i64 0, i64* @rdx, align 8
  %v0_421d = load i1, i1* %pf.global-to-local, align 1
  %v1_421d = icmp eq i1 %v0_421d, false
  %v2_421d = zext i1 %v1_421d to i64
  %v3_421d = load i64, i64* @rax, align 8
  %v4_421d = and i64 %v3_421d, 4294967040
  %v0_4220 = load i1, i1* %zf.global-to-local, align 1
  %v1_4220 = icmp eq i1 %v0_4220, false
  %v5_421d.op = or i64 %v4_421d, %v2_421d
  %v7_4220 = select i1 %v1_4220, i64 0, i64 %v5_421d.op
  store i64 %v7_4220, i64* @rax, align 8
  br label %dec_label_pc_4223

dec_label_pc_4223:                                ; preds = %dec_label_pc_4200.dec_label_pc_4223_crit_edge, %dec_label_pc_4214
  %v0_4223 = phi i64 [ %v0_4223.pre, %dec_label_pc_4200.dec_label_pc_4223_crit_edge ], [ %v7_4220, %dec_label_pc_4214 ]
  ret i64 %v0_4223
}

define i64 @_ZN3org4luaj3vm210LuaInteger2gtEJPNS1_8LuaValueES4_(i64 %arg1, i64 %arg2) local_unnamed_addr {
dec_label_pc_4230:
  store i64 %arg1, i64* @rdi, align 8
  store i64 %arg2, i64* @rax, align 8
  %v0_4237 = load i64, i64* @rdi, align 8
  %v1_4237 = add i64 %v0_4237, 8
  %v2_4237 = inttoptr i64 %v1_4237 to i32*
  %v3_4237 = load i32, i32* %v2_4237, align 4
  %v4_4237 = zext i32 %v3_4237 to i64
  store i64 %v4_4237, i64* @rdx, align 8
  store i64 %arg2, i64* @rdi, align 8
  %v4_4246 = trunc i64 %arg2 to i8
  %v5_4246 = icmp eq i8 %v4_4246, 0
  %v0_4248 = load i64, i64* inttoptr (i64 16975 to i64*), align 8
  store i64 %v0_4248, i64* @rax, align 8
  %v2_424f = load i64, i64* inttoptr (i64 16983 to i64*), align 8
  %v3_424f = select i1 %v5_4246, i64 %v2_424f, i64 %v0_4248
  store i64 %v3_424f, i64* @rax, align 8
  ret i64 %v3_424f
}

define i64 @_ZN3org4luaj3vm210LuaInteger2gtEJPNS1_8LuaValueEd(i64 %arg1) local_unnamed_addr {
dec_label_pc_4260:
  %cf.global-to-local = alloca i1, align 1
  %xmm0.global-to-local = alloca i128, align 8
  %xmm1.global-to-local = alloca i128, align 8
  %zf.global-to-local = alloca i1, align 1
  store i64 %arg1, i64* @rdi, align 8
  %v0_4260 = load i128, i128* %xmm1.global-to-local, align 8
  %v2_4260 = call i128 @__asm_pxor(i128 %v0_4260, i128 %v0_4260)
  store i128 %v2_4260, i128* %xmm1.global-to-local, align 8
  %v0_4264 = load i64, i64* inttoptr (i64 17003 to i64*), align 8
  store i64 %v0_4264, i64* @rax, align 8
  %v0_426b = load i64, i64* @rdi, align 8
  %v1_426b = add i64 %v0_426b, 8
  %v2_426b = inttoptr i64 %v1_426b to i32*
  %v3_426b = load i32, i32* %v2_426b, align 4
  %v4_426b = call i128 @__asm_cvtsi2sd.7468(i32 %v3_426b)
  store i128 %v4_426b, i128* %xmm1.global-to-local, align 8
  %v1_4270 = load i128, i128* %xmm0.global-to-local, align 8
  call void @__asm_ucomisd(i128 %v4_426b, i128 %v1_4270)
  %v0_4274 = load i1, i1* %cf.global-to-local, align 1
  %v1_4274 = load i1, i1* %zf.global-to-local, align 1
  %v2_4274 = or i1 %v0_4274, %v1_4274
  %v3_4274 = icmp ne i1 %v2_4274, true
  %v4_4274 = load i64, i64* @rax, align 8
  %v5_4274 = load i64, i64* inttoptr (i64 17020 to i64*), align 8
  %v6_4274 = select i1 %v3_4274, i64 %v5_4274, i64 %v4_4274
  store i64 %v6_4274, i64* @rax, align 8
  ret i64 %v6_4274
}

define i64 @_ZN3org4luaj3vm210LuaInteger2gtEJPNS1_8LuaValueEi() local_unnamed_addr {
dec_label_pc_4280:
  %tmp234 = load i64, i64* @rax, align 8
  ret i64 %tmp234
}

define i64 @function_4284() local_unnamed_addr {
dec_label_pc_4284:
  %of.global-to-local = alloca i1, align 1
  %sf.global-to-local = alloca i1, align 1
  %zf.global-to-local = alloca i1, align 1
  %v0_4284 = load i32, i32* inttoptr (i64 17034 to i32*), align 4
  %v1_4284 = zext i32 %v0_4284 to i64
  store i64 %v1_4284, i64* @rax, align 8
